
build/riscv64/r_forktest:     file format elf64-littleriscv


Disassembly of section .text:

0000000000000000 <main>:
       0:	7175                	addi	sp,sp,-144
       2:	e506                	sd	ra,136(sp)
       4:	e122                	sd	s0,128(sp)
       6:	fca6                	sd	s1,120(sp)
       8:	f8ca                	sd	s2,112(sp)
       a:	f4ce                	sd	s3,104(sp)
       c:	f0d2                	sd	s4,96(sp)
       e:	ecd6                	sd	s5,88(sp)
      10:	e402                	sd	zero,8(sp)
      12:	00000097          	auipc	ra,0x0
      16:	6b8080e7          	jalr	1720(ra) # 6ca <_ZN8user_lib4fork17h33c85bb845af090bE>
      1a:	e82a                	sd	a0,16(sp)
      1c:	32050163          	beqz	a0,33e <.LBB0_40+0x2a>
      20:	01010913          	addi	s2,sp,16
      24:	ec4a                	sd	s2,24(sp)

0000000000000026 <.LBB0_35>:
      26:	00001a17          	auipc	s4,0x1
      2a:	29aa0a13          	addi	s4,s4,666 # 12c0 <_ZN4core3fmt3num3imp52_$LT$impl$u20$core..fmt..Display$u20$for$u20$i64$GT$3fmt17hf9c85affe625496eE>
      2e:	f052                	sd	s4,32(sp)

0000000000000030 <.LBB0_36>:
      30:	00002a97          	auipc	s5,0x2
      34:	018a8a93          	addi	s5,s5,24 # 2048 <.Lanon.fad58de7366495db4650cfefac2fcd61.4>
      38:	f456                	sd	s5,40(sp)
      3a:	4509                	li	a0,2
      3c:	f82a                	sd	a0,48(sp)
      3e:	fc02                	sd	zero,56(sp)
      40:	01810993          	addi	s3,sp,24
      44:	e4ce                	sd	s3,72(sp)
      46:	4485                	li	s1,1
      48:	e8a6                	sd	s1,80(sp)
      4a:	1028                	addi	a0,sp,40
      4c:	00000097          	auipc	ra,0x0
      50:	468080e7          	jalr	1128(ra) # 4b4 <_ZN8user_lib7console5print17h00651df5ac7f239dE>
      54:	6542                	ld	a0,16(sp)
      56:	32954263          	blt	a0,s1,37a <.LBB0_43>
      5a:	e426                	sd	s1,8(sp)
      5c:	00000097          	auipc	ra,0x0
      60:	66e080e7          	jalr	1646(ra) # 6ca <_ZN8user_lib4fork17h33c85bb845af090bE>
      64:	e82a                	sd	a0,16(sp)
      66:	2c050c63          	beqz	a0,33e <.LBB0_40+0x2a>
      6a:	ec4a                	sd	s2,24(sp)
      6c:	f052                	sd	s4,32(sp)
      6e:	f456                	sd	s5,40(sp)
      70:	4489                	li	s1,2
      72:	f826                	sd	s1,48(sp)
      74:	fc02                	sd	zero,56(sp)
      76:	e4ce                	sd	s3,72(sp)
      78:	4405                	li	s0,1
      7a:	e8a2                	sd	s0,80(sp)
      7c:	1028                	addi	a0,sp,40
      7e:	00000097          	auipc	ra,0x0
      82:	436080e7          	jalr	1078(ra) # 4b4 <_ZN8user_lib7console5print17h00651df5ac7f239dE>
      86:	6542                	ld	a0,16(sp)
      88:	2e854963          	blt	a0,s0,37a <.LBB0_43>
      8c:	e426                	sd	s1,8(sp)
      8e:	00000097          	auipc	ra,0x0
      92:	63c080e7          	jalr	1596(ra) # 6ca <_ZN8user_lib4fork17h33c85bb845af090bE>
      96:	e82a                	sd	a0,16(sp)
      98:	2a050363          	beqz	a0,33e <.LBB0_40+0x2a>
      9c:	ec4a                	sd	s2,24(sp)
      9e:	f052                	sd	s4,32(sp)
      a0:	f456                	sd	s5,40(sp)
      a2:	4509                	li	a0,2
      a4:	f82a                	sd	a0,48(sp)
      a6:	fc02                	sd	zero,56(sp)
      a8:	e4ce                	sd	s3,72(sp)
      aa:	4405                	li	s0,1
      ac:	e8a2                	sd	s0,80(sp)
      ae:	1028                	addi	a0,sp,40
      b0:	00000097          	auipc	ra,0x0
      b4:	404080e7          	jalr	1028(ra) # 4b4 <_ZN8user_lib7console5print17h00651df5ac7f239dE>
      b8:	6542                	ld	a0,16(sp)
      ba:	2c854063          	blt	a0,s0,37a <.LBB0_43>
      be:	450d                	li	a0,3
      c0:	e42a                	sd	a0,8(sp)
      c2:	00000097          	auipc	ra,0x0
      c6:	608080e7          	jalr	1544(ra) # 6ca <_ZN8user_lib4fork17h33c85bb845af090bE>
      ca:	e82a                	sd	a0,16(sp)
      cc:	26050963          	beqz	a0,33e <.LBB0_40+0x2a>
      d0:	ec4a                	sd	s2,24(sp)
      d2:	f052                	sd	s4,32(sp)
      d4:	f456                	sd	s5,40(sp)
      d6:	4509                	li	a0,2
      d8:	f82a                	sd	a0,48(sp)
      da:	fc02                	sd	zero,56(sp)
      dc:	e4ce                	sd	s3,72(sp)
      de:	4405                	li	s0,1
      e0:	e8a2                	sd	s0,80(sp)
      e2:	1028                	addi	a0,sp,40
      e4:	00000097          	auipc	ra,0x0
      e8:	3d0080e7          	jalr	976(ra) # 4b4 <_ZN8user_lib7console5print17h00651df5ac7f239dE>
      ec:	6542                	ld	a0,16(sp)
      ee:	28854663          	blt	a0,s0,37a <.LBB0_43>
      f2:	4511                	li	a0,4
      f4:	e42a                	sd	a0,8(sp)
      f6:	00000097          	auipc	ra,0x0
      fa:	5d4080e7          	jalr	1492(ra) # 6ca <_ZN8user_lib4fork17h33c85bb845af090bE>
      fe:	e82a                	sd	a0,16(sp)
     100:	22050f63          	beqz	a0,33e <.LBB0_40+0x2a>
     104:	ec4a                	sd	s2,24(sp)
     106:	f052                	sd	s4,32(sp)
     108:	f456                	sd	s5,40(sp)
     10a:	4509                	li	a0,2
     10c:	f82a                	sd	a0,48(sp)
     10e:	fc02                	sd	zero,56(sp)
     110:	e4ce                	sd	s3,72(sp)
     112:	4405                	li	s0,1
     114:	e8a2                	sd	s0,80(sp)
     116:	1028                	addi	a0,sp,40
     118:	00000097          	auipc	ra,0x0
     11c:	39c080e7          	jalr	924(ra) # 4b4 <_ZN8user_lib7console5print17h00651df5ac7f239dE>
     120:	6542                	ld	a0,16(sp)
     122:	24854c63          	blt	a0,s0,37a <.LBB0_43>
     126:	4515                	li	a0,5
     128:	e42a                	sd	a0,8(sp)
     12a:	00000097          	auipc	ra,0x0
     12e:	5a0080e7          	jalr	1440(ra) # 6ca <_ZN8user_lib4fork17h33c85bb845af090bE>
     132:	e82a                	sd	a0,16(sp)
     134:	20050563          	beqz	a0,33e <.LBB0_40+0x2a>
     138:	ec4a                	sd	s2,24(sp)
     13a:	f052                	sd	s4,32(sp)
     13c:	f456                	sd	s5,40(sp)
     13e:	4509                	li	a0,2
     140:	f82a                	sd	a0,48(sp)
     142:	fc02                	sd	zero,56(sp)
     144:	e4ce                	sd	s3,72(sp)
     146:	4405                	li	s0,1
     148:	e8a2                	sd	s0,80(sp)
     14a:	1028                	addi	a0,sp,40
     14c:	00000097          	auipc	ra,0x0
     150:	368080e7          	jalr	872(ra) # 4b4 <_ZN8user_lib7console5print17h00651df5ac7f239dE>
     154:	6542                	ld	a0,16(sp)
     156:	22854263          	blt	a0,s0,37a <.LBB0_43>
     15a:	4519                	li	a0,6
     15c:	e42a                	sd	a0,8(sp)
     15e:	00000097          	auipc	ra,0x0
     162:	56c080e7          	jalr	1388(ra) # 6ca <_ZN8user_lib4fork17h33c85bb845af090bE>
     166:	e82a                	sd	a0,16(sp)
     168:	1c050b63          	beqz	a0,33e <.LBB0_40+0x2a>
     16c:	ec4a                	sd	s2,24(sp)
     16e:	f052                	sd	s4,32(sp)
     170:	f456                	sd	s5,40(sp)
     172:	4509                	li	a0,2
     174:	f82a                	sd	a0,48(sp)
     176:	fc02                	sd	zero,56(sp)
     178:	e4ce                	sd	s3,72(sp)
     17a:	4405                	li	s0,1
     17c:	e8a2                	sd	s0,80(sp)
     17e:	1028                	addi	a0,sp,40
     180:	00000097          	auipc	ra,0x0
     184:	334080e7          	jalr	820(ra) # 4b4 <_ZN8user_lib7console5print17h00651df5ac7f239dE>
     188:	6542                	ld	a0,16(sp)
     18a:	1e854863          	blt	a0,s0,37a <.LBB0_43>
     18e:	451d                	li	a0,7
     190:	e42a                	sd	a0,8(sp)
     192:	00000097          	auipc	ra,0x0
     196:	538080e7          	jalr	1336(ra) # 6ca <_ZN8user_lib4fork17h33c85bb845af090bE>
     19a:	e82a                	sd	a0,16(sp)
     19c:	1a050163          	beqz	a0,33e <.LBB0_40+0x2a>
     1a0:	ec4a                	sd	s2,24(sp)
     1a2:	f052                	sd	s4,32(sp)
     1a4:	f456                	sd	s5,40(sp)
     1a6:	4509                	li	a0,2
     1a8:	f82a                	sd	a0,48(sp)
     1aa:	fc02                	sd	zero,56(sp)
     1ac:	e4ce                	sd	s3,72(sp)
     1ae:	4405                	li	s0,1
     1b0:	e8a2                	sd	s0,80(sp)
     1b2:	1028                	addi	a0,sp,40
     1b4:	00000097          	auipc	ra,0x0
     1b8:	300080e7          	jalr	768(ra) # 4b4 <_ZN8user_lib7console5print17h00651df5ac7f239dE>
     1bc:	6542                	ld	a0,16(sp)
     1be:	1a854e63          	blt	a0,s0,37a <.LBB0_43>
     1c2:	4521                	li	a0,8
     1c4:	e42a                	sd	a0,8(sp)
     1c6:	00000097          	auipc	ra,0x0
     1ca:	504080e7          	jalr	1284(ra) # 6ca <_ZN8user_lib4fork17h33c85bb845af090bE>
     1ce:	e82a                	sd	a0,16(sp)
     1d0:	16050763          	beqz	a0,33e <.LBB0_40+0x2a>
     1d4:	ec4a                	sd	s2,24(sp)
     1d6:	f052                	sd	s4,32(sp)
     1d8:	f456                	sd	s5,40(sp)
     1da:	4509                	li	a0,2
     1dc:	f82a                	sd	a0,48(sp)
     1de:	fc02                	sd	zero,56(sp)
     1e0:	e4ce                	sd	s3,72(sp)
     1e2:	4405                	li	s0,1
     1e4:	e8a2                	sd	s0,80(sp)
     1e6:	1028                	addi	a0,sp,40
     1e8:	00000097          	auipc	ra,0x0
     1ec:	2cc080e7          	jalr	716(ra) # 4b4 <_ZN8user_lib7console5print17h00651df5ac7f239dE>
     1f0:	6542                	ld	a0,16(sp)
     1f2:	18854463          	blt	a0,s0,37a <.LBB0_43>
     1f6:	4525                	li	a0,9
     1f8:	e42a                	sd	a0,8(sp)
     1fa:	00000097          	auipc	ra,0x0
     1fe:	4d0080e7          	jalr	1232(ra) # 6ca <_ZN8user_lib4fork17h33c85bb845af090bE>
     202:	e82a                	sd	a0,16(sp)
     204:	12050d63          	beqz	a0,33e <.LBB0_40+0x2a>
     208:	ec4a                	sd	s2,24(sp)
     20a:	f052                	sd	s4,32(sp)
     20c:	f456                	sd	s5,40(sp)
     20e:	4509                	li	a0,2
     210:	f82a                	sd	a0,48(sp)
     212:	fc02                	sd	zero,56(sp)
     214:	e4ce                	sd	s3,72(sp)
     216:	4405                	li	s0,1
     218:	e8a2                	sd	s0,80(sp)
     21a:	1028                	addi	a0,sp,40
     21c:	00000097          	auipc	ra,0x0
     220:	298080e7          	jalr	664(ra) # 4b4 <_ZN8user_lib7console5print17h00651df5ac7f239dE>
     224:	6542                	ld	a0,16(sp)
     226:	14854a63          	blt	a0,s0,37a <.LBB0_43>
     22a:	4529                	li	a0,10
     22c:	e42a                	sd	a0,8(sp)
     22e:	00000097          	auipc	ra,0x0
     232:	49c080e7          	jalr	1180(ra) # 6ca <_ZN8user_lib4fork17h33c85bb845af090bE>
     236:	e82a                	sd	a0,16(sp)
     238:	10050363          	beqz	a0,33e <.LBB0_40+0x2a>
     23c:	ec4a                	sd	s2,24(sp)
     23e:	f052                	sd	s4,32(sp)
     240:	f456                	sd	s5,40(sp)
     242:	4509                	li	a0,2
     244:	f82a                	sd	a0,48(sp)
     246:	fc02                	sd	zero,56(sp)
     248:	e4ce                	sd	s3,72(sp)
     24a:	4405                	li	s0,1
     24c:	e8a2                	sd	s0,80(sp)
     24e:	1028                	addi	a0,sp,40
     250:	00000097          	auipc	ra,0x0
     254:	264080e7          	jalr	612(ra) # 4b4 <_ZN8user_lib7console5print17h00651df5ac7f239dE>
     258:	6542                	ld	a0,16(sp)
     25a:	12854063          	blt	a0,s0,37a <.LBB0_43>
     25e:	452d                	li	a0,11
     260:	e42a                	sd	a0,8(sp)
     262:	00000097          	auipc	ra,0x0
     266:	468080e7          	jalr	1128(ra) # 6ca <_ZN8user_lib4fork17h33c85bb845af090bE>
     26a:	e82a                	sd	a0,16(sp)
     26c:	c969                	beqz	a0,33e <.LBB0_40+0x2a>
     26e:	ec4a                	sd	s2,24(sp)
     270:	f052                	sd	s4,32(sp)
     272:	f456                	sd	s5,40(sp)
     274:	4509                	li	a0,2
     276:	f82a                	sd	a0,48(sp)
     278:	fc02                	sd	zero,56(sp)
     27a:	e4ce                	sd	s3,72(sp)
     27c:	4405                	li	s0,1
     27e:	e8a2                	sd	s0,80(sp)
     280:	1028                	addi	a0,sp,40
     282:	00000097          	auipc	ra,0x0
     286:	232080e7          	jalr	562(ra) # 4b4 <_ZN8user_lib7console5print17h00651df5ac7f239dE>
     28a:	6542                	ld	a0,16(sp)
     28c:	0e854763          	blt	a0,s0,37a <.LBB0_43>
     290:	4531                	li	a0,12
     292:	e42a                	sd	a0,8(sp)
     294:	00000097          	auipc	ra,0x0
     298:	436080e7          	jalr	1078(ra) # 6ca <_ZN8user_lib4fork17h33c85bb845af090bE>
     29c:	e82a                	sd	a0,16(sp)
     29e:	c145                	beqz	a0,33e <.LBB0_40+0x2a>
     2a0:	ec4a                	sd	s2,24(sp)
     2a2:	f052                	sd	s4,32(sp)
     2a4:	f456                	sd	s5,40(sp)
     2a6:	4509                	li	a0,2
     2a8:	f82a                	sd	a0,48(sp)
     2aa:	fc02                	sd	zero,56(sp)
     2ac:	e4ce                	sd	s3,72(sp)
     2ae:	4405                	li	s0,1
     2b0:	e8a2                	sd	s0,80(sp)
     2b2:	1028                	addi	a0,sp,40
     2b4:	00000097          	auipc	ra,0x0
     2b8:	200080e7          	jalr	512(ra) # 4b4 <_ZN8user_lib7console5print17h00651df5ac7f239dE>
     2bc:	6542                	ld	a0,16(sp)
     2be:	0a854e63          	blt	a0,s0,37a <.LBB0_43>
     2c2:	cc02                	sw	zero,24(sp)
     2c4:	44b9                	li	s1,14
     2c6:	0820                	addi	s0,sp,24
     2c8:	14fd                	addi	s1,s1,-1
     2ca:	c495                	beqz	s1,2f6 <.LBB0_38+0x14>
     2cc:	8522                	mv	a0,s0
     2ce:	00000097          	auipc	ra,0x0
     2d2:	40c080e7          	jalr	1036(ra) # 6da <_ZN8user_lib4wait17h7032251bf17f72abE>
     2d6:	fea049e3          	bgtz	a0,2c8 <.LBB0_36+0x298>

00000000000002da <.LBB0_37>:
     2da:	00002517          	auipc	a0,0x2
     2de:	dd650513          	addi	a0,a0,-554 # 20b0 <.Lanon.fad58de7366495db4650cfefac2fcd61.8>

00000000000002e2 <.LBB0_38>:
     2e2:	00002617          	auipc	a2,0x2
     2e6:	de660613          	addi	a2,a2,-538 # 20c8 <.Lanon.fad58de7366495db4650cfefac2fcd61.9>
     2ea:	45c9                	li	a1,18
     2ec:	00000097          	auipc	ra,0x0
     2f0:	6aa080e7          	jalr	1706(ra) # 996 <_ZN4core9panicking5panic17hada9984cc1d6f2faE>
     2f4:	0000                	unimp
     2f6:	0828                	addi	a0,sp,24
     2f8:	00000097          	auipc	ra,0x0
     2fc:	3e2080e7          	jalr	994(ra) # 6da <_ZN8user_lib4wait17h7032251bf17f72abE>
     300:	08a04b63          	bgtz	a0,396 <.LBB0_45>

0000000000000304 <.LBB0_39>:
     304:	00002517          	auipc	a0,0x2
     308:	e1c50513          	addi	a0,a0,-484 # 2120 <.Lanon.fad58de7366495db4650cfefac2fcd61.13>
     30c:	f42a                	sd	a0,40(sp)
     30e:	4505                	li	a0,1
     310:	f82a                	sd	a0,48(sp)
     312:	fc02                	sd	zero,56(sp)

0000000000000314 <.LBB0_40>:
     314:	00002517          	auipc	a0,0x2
     318:	e1c50513          	addi	a0,a0,-484 # 2130 <anon.2bd95ea97990112c51f5160b40619262.0.llvm.10794866312134701656>
     31c:	e4aa                	sd	a0,72(sp)
     31e:	e882                	sd	zero,80(sp)
     320:	1028                	addi	a0,sp,40
     322:	00000097          	auipc	ra,0x0
     326:	192080e7          	jalr	402(ra) # 4b4 <_ZN8user_lib7console5print17h00651df5ac7f239dE>
     32a:	4501                	li	a0,0
     32c:	6ae6                	ld	s5,88(sp)
     32e:	7a06                	ld	s4,96(sp)
     330:	79a6                	ld	s3,104(sp)
     332:	7946                	ld	s2,112(sp)
     334:	74e6                	ld	s1,120(sp)
     336:	640a                	ld	s0,128(sp)
     338:	60aa                	ld	ra,136(sp)
     33a:	6149                	addi	sp,sp,144
     33c:	8082                	ret
     33e:	0028                	addi	a0,sp,8
     340:	ec2a                	sd	a0,24(sp)

0000000000000342 <.LBB0_41>:
     342:	00001517          	auipc	a0,0x1
     346:	f9e50513          	addi	a0,a0,-98 # 12e0 <_ZN4core3fmt3num3imp52_$LT$impl$u20$core..fmt..Display$u20$for$u20$u64$GT$3fmt17h264432b89ab7cfccE>
     34a:	f02a                	sd	a0,32(sp)

000000000000034c <.LBB0_42>:
     34c:	00002517          	auipc	a0,0x2
     350:	cc450513          	addi	a0,a0,-828 # 2010 <.Lanon.fad58de7366495db4650cfefac2fcd61.2>
     354:	f42a                	sd	a0,40(sp)
     356:	4509                	li	a0,2
     358:	f82a                	sd	a0,48(sp)
     35a:	fc02                	sd	zero,56(sp)
     35c:	0828                	addi	a0,sp,24
     35e:	e4aa                	sd	a0,72(sp)
     360:	4505                	li	a0,1
     362:	e8aa                	sd	a0,80(sp)
     364:	1028                	addi	a0,sp,40
     366:	00000097          	auipc	ra,0x0
     36a:	14e080e7          	jalr	334(ra) # 4b4 <_ZN8user_lib7console5print17h00651df5ac7f239dE>
     36e:	4501                	li	a0,0
     370:	00000097          	auipc	ra,0x0
     374:	350080e7          	jalr	848(ra) # 6c0 <_ZN8user_lib4exit17h7e2e6b0949854d97E>
	...

000000000000037a <.LBB0_43>:
     37a:	00002517          	auipc	a0,0x2
     37e:	cee50513          	addi	a0,a0,-786 # 2068 <.Lanon.fad58de7366495db4650cfefac2fcd61.5>

0000000000000382 <.LBB0_44>:
     382:	00002617          	auipc	a2,0x2
     386:	d1660613          	addi	a2,a2,-746 # 2098 <.Lanon.fad58de7366495db4650cfefac2fcd61.7>
     38a:	45e5                	li	a1,25
     38c:	00000097          	auipc	ra,0x0
     390:	60a080e7          	jalr	1546(ra) # 996 <_ZN4core9panicking5panic17hada9984cc1d6f2faE>
	...

0000000000000396 <.LBB0_45>:
     396:	00002517          	auipc	a0,0x2
     39a:	d4a50513          	addi	a0,a0,-694 # 20e0 <.Lanon.fad58de7366495db4650cfefac2fcd61.10>

000000000000039e <.LBB0_46>:
     39e:	00002617          	auipc	a2,0x2
     3a2:	d5a60613          	addi	a2,a2,-678 # 20f8 <.Lanon.fad58de7366495db4650cfefac2fcd61.11>
     3a6:	45c5                	li	a1,17
     3a8:	00000097          	auipc	ra,0x0
     3ac:	5ee080e7          	jalr	1518(ra) # 996 <_ZN4core9panicking5panic17hada9984cc1d6f2faE>
	...

00000000000003b2 <_ZN4core3ptr13drop_in_place17h615f611264c284c2E>:
     3b2:	8082                	ret

00000000000003b4 <_ZN50_$LT$$RF$mut$u20$W$u20$as$u20$core..fmt..Write$GT$10write_char17h11094283410a749bE>:
     3b4:	1141                	addi	sp,sp,-16
     3b6:	0005851b          	sext.w	a0,a1
     3ba:	08000613          	li	a2,128
     3be:	c602                	sw	zero,12(sp)
     3c0:	00c57663          	bgeu	a0,a2,3cc <_ZN50_$LT$$RF$mut$u20$W$u20$as$u20$core..fmt..Write$GT$10write_char17h11094283410a749bE+0x18>
     3c4:	00b10623          	sb	a1,12(sp)
     3c8:	4605                	li	a2,1
     3ca:	a841                	j	45a <_ZN50_$LT$$RF$mut$u20$W$u20$as$u20$core..fmt..Write$GT$10write_char17h11094283410a749bE+0xa6>
     3cc:	00b5d51b          	srliw	a0,a1,0xb
     3d0:	ed19                	bnez	a0,3ee <_ZN50_$LT$$RF$mut$u20$W$u20$as$u20$core..fmt..Write$GT$10write_char17h11094283410a749bE+0x3a>
     3d2:	0065d513          	srli	a0,a1,0x6
     3d6:	0c056513          	ori	a0,a0,192
     3da:	00a10623          	sb	a0,12(sp)
     3de:	03f5f513          	andi	a0,a1,63
     3e2:	08056513          	ori	a0,a0,128
     3e6:	00a106a3          	sb	a0,13(sp)
     3ea:	4609                	li	a2,2
     3ec:	a0bd                	j	45a <_ZN50_$LT$$RF$mut$u20$W$u20$as$u20$core..fmt..Write$GT$10write_char17h11094283410a749bE+0xa6>
     3ee:	0105d51b          	srliw	a0,a1,0x10
     3f2:	e51d                	bnez	a0,420 <_ZN50_$LT$$RF$mut$u20$W$u20$as$u20$core..fmt..Write$GT$10write_char17h11094283410a749bE+0x6c>
     3f4:	00c5d51b          	srliw	a0,a1,0xc
     3f8:	0e056513          	ori	a0,a0,224
     3fc:	00a10623          	sb	a0,12(sp)
     400:	0065d51b          	srliw	a0,a1,0x6
     404:	03f57513          	andi	a0,a0,63
     408:	08056513          	ori	a0,a0,128
     40c:	00a106a3          	sb	a0,13(sp)
     410:	03f5f513          	andi	a0,a1,63
     414:	08056513          	ori	a0,a0,128
     418:	00a10723          	sb	a0,14(sp)
     41c:	460d                	li	a2,3
     41e:	a835                	j	45a <_ZN50_$LT$$RF$mut$u20$W$u20$as$u20$core..fmt..Write$GT$10write_char17h11094283410a749bE+0xa6>
     420:	0125d51b          	srliw	a0,a1,0x12
     424:	0f056513          	ori	a0,a0,240
     428:	00a10623          	sb	a0,12(sp)
     42c:	00c5d51b          	srliw	a0,a1,0xc
     430:	03f57513          	andi	a0,a0,63
     434:	08056513          	ori	a0,a0,128
     438:	00a106a3          	sb	a0,13(sp)
     43c:	0065d51b          	srliw	a0,a1,0x6
     440:	03f57513          	andi	a0,a0,63
     444:	08056513          	ori	a0,a0,128
     448:	00a10723          	sb	a0,14(sp)
     44c:	03f5f513          	andi	a0,a1,63
     450:	08056513          	ori	a0,a0,128
     454:	00a107a3          	sb	a0,15(sp)
     458:	4611                	li	a2,4
     45a:	006c                	addi	a1,sp,12
     45c:	4505                	li	a0,1
     45e:	04000893          	li	a7,64
     462:	00000073          	ecall
     466:	4501                	li	a0,0
     468:	0141                	addi	sp,sp,16
     46a:	8082                	ret

000000000000046c <_ZN50_$LT$$RF$mut$u20$W$u20$as$u20$core..fmt..Write$GT$9write_fmt17hf0f817ed4bb04f17E>:
     46c:	7139                	addi	sp,sp,-64
     46e:	fc06                	sd	ra,56(sp)
     470:	6108                	ld	a0,0(a0)
     472:	7590                	ld	a2,40(a1)
     474:	7194                	ld	a3,32(a1)
     476:	e02a                	sd	a0,0(sp)
     478:	f832                	sd	a2,48(sp)
     47a:	f436                	sd	a3,40(sp)
     47c:	6d88                	ld	a0,24(a1)
     47e:	6990                	ld	a2,16(a1)
     480:	6594                	ld	a3,8(a1)
     482:	618c                	ld	a1,0(a1)
     484:	f02a                	sd	a0,32(sp)
     486:	ec32                	sd	a2,24(sp)
     488:	e836                	sd	a3,16(sp)
     48a:	e42e                	sd	a1,8(sp)

000000000000048c <.LBB2_1>:
     48c:	00002597          	auipc	a1,0x2
     490:	ca458593          	addi	a1,a1,-860 # 2130 <anon.2bd95ea97990112c51f5160b40619262.0.llvm.10794866312134701656>
     494:	850a                	mv	a0,sp
     496:	0030                	addi	a2,sp,8
     498:	00000097          	auipc	ra,0x0
     49c:	5c4080e7          	jalr	1476(ra) # a5c <_ZN4core3fmt5write17hab57c96bb669b93aE>
     4a0:	70e2                	ld	ra,56(sp)
     4a2:	6121                	addi	sp,sp,64
     4a4:	8082                	ret

00000000000004a6 <_ZN50_$LT$$RF$mut$u20$W$u20$as$u20$core..fmt..Write$GT$9write_str17ha44f0855722aa3aaE>:
     4a6:	4505                	li	a0,1
     4a8:	04000893          	li	a7,64
     4ac:	00000073          	ecall
     4b0:	4501                	li	a0,0
     4b2:	8082                	ret

00000000000004b4 <_ZN8user_lib7console5print17h00651df5ac7f239dE>:
     4b4:	7139                	addi	sp,sp,-64
     4b6:	fc06                	sd	ra,56(sp)
     4b8:	750c                	ld	a1,40(a0)
     4ba:	7110                	ld	a2,32(a0)
     4bc:	0034                	addi	a3,sp,8
     4be:	e036                	sd	a3,0(sp)
     4c0:	f82e                	sd	a1,48(sp)
     4c2:	f432                	sd	a2,40(sp)
     4c4:	6d0c                	ld	a1,24(a0)
     4c6:	6910                	ld	a2,16(a0)
     4c8:	6514                	ld	a3,8(a0)
     4ca:	6108                	ld	a0,0(a0)
     4cc:	f02e                	sd	a1,32(sp)
     4ce:	ec32                	sd	a2,24(sp)
     4d0:	e836                	sd	a3,16(sp)
     4d2:	e42a                	sd	a0,8(sp)

00000000000004d4 <.LBB5_3>:
     4d4:	00002597          	auipc	a1,0x2
     4d8:	c5c58593          	addi	a1,a1,-932 # 2130 <anon.2bd95ea97990112c51f5160b40619262.0.llvm.10794866312134701656>
     4dc:	850a                	mv	a0,sp
     4de:	0030                	addi	a2,sp,8
     4e0:	00000097          	auipc	ra,0x0
     4e4:	57c080e7          	jalr	1404(ra) # a5c <_ZN4core3fmt5write17hab57c96bb669b93aE>
     4e8:	e501                	bnez	a0,4f0 <.LBB5_4>
     4ea:	70e2                	ld	ra,56(sp)
     4ec:	6121                	addi	sp,sp,64
     4ee:	8082                	ret

00000000000004f0 <.LBB5_4>:
     4f0:	00002517          	auipc	a0,0x2
     4f4:	c7050513          	addi	a0,a0,-912 # 2160 <anon.2bd95ea97990112c51f5160b40619262.1.llvm.10794866312134701656>

00000000000004f8 <.LBB5_5>:
     4f8:	00002697          	auipc	a3,0x2
     4fc:	c9868693          	addi	a3,a3,-872 # 2190 <anon.2bd95ea97990112c51f5160b40619262.2.llvm.10794866312134701656>

0000000000000500 <.LBB5_6>:
     500:	00002717          	auipc	a4,0x2
     504:	cc070713          	addi	a4,a4,-832 # 21c0 <anon.2bd95ea97990112c51f5160b40619262.4.llvm.10794866312134701656>
     508:	0030                	addi	a2,sp,8
     50a:	02b00593          	li	a1,43
     50e:	00000097          	auipc	ra,0x0
     512:	428080e7          	jalr	1064(ra) # 936 <_ZN4core6option18expect_none_failed17hb19d69425c6ad3b5E>
	...

0000000000000518 <rust_begin_unwind>:
     518:	7135                	addi	sp,sp,-160
     51a:	ed06                	sd	ra,152(sp)
     51c:	e922                	sd	s0,144(sp)
     51e:	e526                	sd	s1,136(sp)
     520:	842a                	mv	s0,a0
     522:	00000097          	auipc	ra,0x0
     526:	464080e7          	jalr	1124(ra) # 986 <_ZN4core5panic9PanicInfo8location17h5276564d58213a23E>
     52a:	e515                	bnez	a0,556 <.LBB0_10+0x16>
     52c:	8522                	mv	a0,s0
     52e:	00000097          	auipc	ra,0x0
     532:	454080e7          	jalr	1108(ra) # 982 <_ZN4core5panic9PanicInfo7message17h784f4369f0e35bc0E>
     536:	e135                	bnez	a0,59a <.LBB0_12+0x16>

0000000000000538 <.LBB0_9>:
     538:	00002517          	auipc	a0,0x2
     53c:	ca050513          	addi	a0,a0,-864 # 21d8 <.Lanon.dfb541fe21af77f880f6d91111f0aeff.0>

0000000000000540 <.LBB0_10>:
     540:	00002617          	auipc	a2,0x2
     544:	d0860613          	addi	a2,a2,-760 # 2248 <.Lanon.dfb541fe21af77f880f6d91111f0aeff.5>
     548:	02b00593          	li	a1,43
     54c:	00000097          	auipc	ra,0x0
     550:	44a080e7          	jalr	1098(ra) # 996 <_ZN4core9panicking5panic17hada9984cc1d6f2faE>
     554:	0000                	unimp
     556:	84aa                	mv	s1,a0
     558:	00000097          	auipc	ra,0x0
     55c:	432080e7          	jalr	1074(ra) # 98a <_ZN4core5panic8Location4file17h3a82b9a2ab5b9c63E>
     560:	f82a                	sd	a0,48(sp)
     562:	fc2e                	sd	a1,56(sp)
     564:	8526                	mv	a0,s1
     566:	00000097          	auipc	ra,0x0
     56a:	42c080e7          	jalr	1068(ra) # 992 <_ZN4core5panic8Location4line17h5e5073e8fe2bb208E>
     56e:	c2aa                	sw	a0,68(sp)
     570:	8522                	mv	a0,s0
     572:	00000097          	auipc	ra,0x0
     576:	410080e7          	jalr	1040(ra) # 982 <_ZN4core5panic9PanicInfo7message17h784f4369f0e35bc0E>
     57a:	e92d                	bnez	a0,5ec <.LBB0_15+0x26>

000000000000057c <.LBB0_11>:
     57c:	00002517          	auipc	a0,0x2
     580:	c5c50513          	addi	a0,a0,-932 # 21d8 <.Lanon.dfb541fe21af77f880f6d91111f0aeff.0>

0000000000000584 <.LBB0_12>:
     584:	00002617          	auipc	a2,0x2
     588:	d2c60613          	addi	a2,a2,-724 # 22b0 <.Lanon.dfb541fe21af77f880f6d91111f0aeff.10>
     58c:	02b00593          	li	a1,43
     590:	00000097          	auipc	ra,0x0
     594:	406080e7          	jalr	1030(ra) # 996 <_ZN4core9panicking5panic17hada9984cc1d6f2faE>
     598:	0000                	unimp
     59a:	e8aa                	sd	a0,80(sp)
     59c:	0888                	addi	a0,sp,80
     59e:	e02a                	sd	a0,0(sp)

00000000000005a0 <.LBB0_13>:
     5a0:	00000517          	auipc	a0,0x0
     5a4:	15e50513          	addi	a0,a0,350 # 6fe <_ZN44_$LT$$RF$T$u20$as$u20$core..fmt..Display$GT$3fmt17hd89d28d7aee01b00E>
     5a8:	e42a                	sd	a0,8(sp)
     5aa:	08a8                	addi	a0,sp,88
     5ac:	f82a                	sd	a0,48(sp)

00000000000005ae <.LBB0_14>:
     5ae:	00002517          	auipc	a0,0x2
     5b2:	c6a50513          	addi	a0,a0,-918 # 2218 <.Lanon.dfb541fe21af77f880f6d91111f0aeff.3>
     5b6:	ecaa                	sd	a0,88(sp)
     5b8:	4509                	li	a0,2
     5ba:	f0aa                	sd	a0,96(sp)
     5bc:	f482                	sd	zero,104(sp)
     5be:	850a                	mv	a0,sp
     5c0:	fcaa                	sd	a0,120(sp)
     5c2:	4505                	li	a0,1
     5c4:	e12a                	sd	a0,128(sp)

00000000000005c6 <.LBB0_15>:
     5c6:	00002597          	auipc	a1,0x2
     5ca:	b6a58593          	addi	a1,a1,-1174 # 2130 <anon.2bd95ea97990112c51f5160b40619262.0.llvm.10794866312134701656>
     5ce:	1808                	addi	a0,sp,48
     5d0:	08b0                	addi	a2,sp,88
     5d2:	00000097          	auipc	ra,0x0
     5d6:	48a080e7          	jalr	1162(ra) # a5c <_ZN4core3fmt5write17hab57c96bb669b93aE>
     5da:	e925                	bnez	a0,64a <.LBB0_21>
     5dc:	4505                	li	a0,1
     5de:	1502                	slli	a0,a0,0x20
     5e0:	157d                	addi	a0,a0,-1
     5e2:	00000097          	auipc	ra,0x0
     5e6:	172080e7          	jalr	370(ra) # 754 <_ZN8user_lib7syscall8sys_exit17h0bfb9e30978ddd32E>
     5ea:	0000                	unimp
     5ec:	e4aa                	sd	a0,72(sp)
     5ee:	1808                	addi	a0,sp,48
     5f0:	e02a                	sd	a0,0(sp)

00000000000005f2 <.LBB0_16>:
     5f2:	00000517          	auipc	a0,0x0
     5f6:	0f850513          	addi	a0,a0,248 # 6ea <_ZN44_$LT$$RF$T$u20$as$u20$core..fmt..Display$GT$3fmt17h3979e513a80de7afE>
     5fa:	e42a                	sd	a0,8(sp)
     5fc:	00c8                	addi	a0,sp,68
     5fe:	e82a                	sd	a0,16(sp)

0000000000000600 <.LBB0_17>:
     600:	00001517          	auipc	a0,0x1
     604:	cb050513          	addi	a0,a0,-848 # 12b0 <_ZN4core3fmt3num3imp52_$LT$impl$u20$core..fmt..Display$u20$for$u20$u32$GT$3fmt17ha1dc7db1ae6e1ccdE>
     608:	ec2a                	sd	a0,24(sp)
     60a:	00a8                	addi	a0,sp,72
     60c:	f02a                	sd	a0,32(sp)

000000000000060e <.LBB0_18>:
     60e:	00000517          	auipc	a0,0x0
     612:	0f050513          	addi	a0,a0,240 # 6fe <_ZN44_$LT$$RF$T$u20$as$u20$core..fmt..Display$GT$3fmt17hd89d28d7aee01b00E>
     616:	f42a                	sd	a0,40(sp)
     618:	08a8                	addi	a0,sp,88
     61a:	e8aa                	sd	a0,80(sp)

000000000000061c <.LBB0_19>:
     61c:	00002517          	auipc	a0,0x2
     620:	c5450513          	addi	a0,a0,-940 # 2270 <.Lanon.dfb541fe21af77f880f6d91111f0aeff.9>
     624:	ecaa                	sd	a0,88(sp)
     626:	4511                	li	a0,4
     628:	f0aa                	sd	a0,96(sp)
     62a:	f482                	sd	zero,104(sp)
     62c:	850a                	mv	a0,sp
     62e:	fcaa                	sd	a0,120(sp)
     630:	450d                	li	a0,3
     632:	e12a                	sd	a0,128(sp)

0000000000000634 <.LBB0_20>:
     634:	00002597          	auipc	a1,0x2
     638:	afc58593          	addi	a1,a1,-1284 # 2130 <anon.2bd95ea97990112c51f5160b40619262.0.llvm.10794866312134701656>
     63c:	0888                	addi	a0,sp,80
     63e:	08b0                	addi	a2,sp,88
     640:	00000097          	auipc	ra,0x0
     644:	41c080e7          	jalr	1052(ra) # a5c <_ZN4core3fmt5write17hab57c96bb669b93aE>
     648:	d951                	beqz	a0,5dc <.LBB0_15+0x16>

000000000000064a <.LBB0_21>:
     64a:	00002517          	auipc	a0,0x2
     64e:	b1650513          	addi	a0,a0,-1258 # 2160 <anon.2bd95ea97990112c51f5160b40619262.1.llvm.10794866312134701656>

0000000000000652 <.LBB0_22>:
     652:	00002697          	auipc	a3,0x2
     656:	b3e68693          	addi	a3,a3,-1218 # 2190 <anon.2bd95ea97990112c51f5160b40619262.2.llvm.10794866312134701656>

000000000000065a <.LBB0_23>:
     65a:	00002717          	auipc	a4,0x2
     65e:	b6670713          	addi	a4,a4,-1178 # 21c0 <anon.2bd95ea97990112c51f5160b40619262.4.llvm.10794866312134701656>
     662:	08b0                	addi	a2,sp,88
     664:	02b00593          	li	a1,43
     668:	00000097          	auipc	ra,0x0
     66c:	2ce080e7          	jalr	718(ra) # 936 <_ZN4core6option18expect_none_failed17hb19d69425c6ad3b5E>
	...

0000000000000672 <_start>:
     672:	1141                	addi	sp,sp,-16
     674:	e406                	sd	ra,8(sp)
     676:	e022                	sd	s0,0(sp)

0000000000000678 <.LBB1_1>:
     678:	00014517          	auipc	a0,0x14
     67c:	98850513          	addi	a0,a0,-1656 # 14000 <_ZN8user_lib4HEAP17h89aee303dfdd0618E>
     680:	00000097          	auipc	ra,0x0
     684:	292080e7          	jalr	658(ra) # 912 <_ZN78_$LT$buddy_system_allocator..LockedHeap$u20$as$u20$core..ops..deref..Deref$GT$5deref17h90d41b3b9ac6dd82E>
     688:	00000097          	auipc	ra,0x0
     68c:	080080e7          	jalr	128(ra) # 708 <_ZN4spin5mutex14Mutex$LT$T$GT$4lock17hd3c78bb63a3e4247E>
     690:	842a                	mv	s0,a0
     692:	852e                	mv	a0,a1

0000000000000694 <.LBB1_2>:
     694:	00004597          	auipc	a1,0x4
     698:	96c58593          	addi	a1,a1,-1684 # 4000 <_ZN8user_lib10HEAP_SPACE17h9e52396fa2f005d1E>
     69c:	6641                	lui	a2,0x10
     69e:	00000097          	auipc	ra,0x0
     6a2:	0e2080e7          	jalr	226(ra) # 780 <_ZN22buddy_system_allocator4Heap4init17h1ec4595427fcd582E>
     6a6:	0310000f          	fence	rw,w
     6aa:	00040023          	sb	zero,0(s0)
     6ae:	00000097          	auipc	ra,0x0
     6b2:	952080e7          	jalr	-1710(ra) # 0 <main>
     6b6:	00000097          	auipc	ra,0x0
     6ba:	09e080e7          	jalr	158(ra) # 754 <_ZN8user_lib7syscall8sys_exit17h0bfb9e30978ddd32E>
	...

00000000000006c0 <_ZN8user_lib4exit17h7e2e6b0949854d97E>:
     6c0:	00000097          	auipc	ra,0x0
     6c4:	094080e7          	jalr	148(ra) # 754 <_ZN8user_lib7syscall8sys_exit17h0bfb9e30978ddd32E>
	...

00000000000006ca <_ZN8user_lib4fork17h33c85bb845af090bE>:
     6ca:	0dc00893          	li	a7,220
     6ce:	4501                	li	a0,0
     6d0:	4581                	li	a1,0
     6d2:	4601                	li	a2,0
     6d4:	00000073          	ecall
     6d8:	8082                	ret

00000000000006da <_ZN8user_lib4wait17h7032251bf17f72abE>:
     6da:	85aa                	mv	a1,a0
     6dc:	10400893          	li	a7,260
     6e0:	4501                	li	a0,0
     6e2:	4601                	li	a2,0
     6e4:	00000073          	ecall
     6e8:	8082                	ret

00000000000006ea <_ZN44_$LT$$RF$T$u20$as$u20$core..fmt..Display$GT$3fmt17h3979e513a80de7afE>:
     6ea:	6110                	ld	a2,0(a0)
     6ec:	6514                	ld	a3,8(a0)
     6ee:	872e                	mv	a4,a1
     6f0:	8532                	mv	a0,a2
     6f2:	85b6                	mv	a1,a3
     6f4:	863a                	mv	a2,a4
     6f6:	00001317          	auipc	t1,0x1
     6fa:	9f830067          	jr	-1544(t1) # 10ee <_ZN42_$LT$str$u20$as$u20$core..fmt..Display$GT$3fmt17hbc3d99ec4c26518bE>

00000000000006fe <_ZN44_$LT$$RF$T$u20$as$u20$core..fmt..Display$GT$3fmt17hd89d28d7aee01b00E>:
     6fe:	6108                	ld	a0,0(a0)
     700:	00000317          	auipc	t1,0x0
     704:	32a30067          	jr	810(t1) # a2a <_ZN59_$LT$core..fmt..Arguments$u20$as$u20$core..fmt..Display$GT$3fmt17ha5d29d1af7bdcf5aE>

0000000000000708 <_ZN4spin5mutex14Mutex$LT$T$GT$4lock17hd3c78bb63a3e4247E>:
     708:	ffc57593          	andi	a1,a0,-4
     70c:	00351613          	slli	a2,a0,0x3
     710:	01867693          	andi	a3,a2,24
     714:	0ff00613          	li	a2,255
     718:	00d6163b          	sllw	a2,a2,a3
     71c:	4705                	li	a4,1
     71e:	00d716bb          	sllw	a3,a4,a3
     722:	1405a72f          	lr.w.aq	a4,(a1)
     726:	00c777b3          	and	a5,a4,a2
     72a:	eb81                	bnez	a5,73a <_ZN4spin5mutex14Mutex$LT$T$GT$4lock17hd3c78bb63a3e4247E+0x32>
     72c:	00d747b3          	xor	a5,a4,a3
     730:	8ff1                	and	a5,a5,a2
     732:	8fb9                	xor	a5,a5,a4
     734:	18f5a7af          	sc.w	a5,a5,(a1)
     738:	f7ed                	bnez	a5,722 <_ZN4spin5mutex14Mutex$LT$T$GT$4lock17hd3c78bb63a3e4247E+0x1a>
     73a:	8f71                	and	a4,a4,a2
     73c:	1702                	slli	a4,a4,0x20
     73e:	9301                	srli	a4,a4,0x20
     740:	c719                	beqz	a4,74e <_ZN4spin5mutex14Mutex$LT$T$GT$4lock17hd3c78bb63a3e4247E+0x46>
     742:	00050703          	lb	a4,0(a0)
     746:	0ff77713          	andi	a4,a4,255
     74a:	ff65                	bnez	a4,742 <_ZN4spin5mutex14Mutex$LT$T$GT$4lock17hd3c78bb63a3e4247E+0x3a>
     74c:	bfd9                	j	722 <_ZN4spin5mutex14Mutex$LT$T$GT$4lock17hd3c78bb63a3e4247E+0x1a>
     74e:	00850593          	addi	a1,a0,8
     752:	8082                	ret

0000000000000754 <_ZN8user_lib7syscall8sys_exit17h0bfb9e30978ddd32E>:
     754:	2501                	sext.w	a0,a0
     756:	05d00893          	li	a7,93
     75a:	4581                	li	a1,0
     75c:	4601                	li	a2,0
     75e:	00000073          	ecall

0000000000000762 <.LBB3_1>:
     762:	00002517          	auipc	a0,0x2
     766:	b6650513          	addi	a0,a0,-1178 # 22c8 <anon.84196f4204adc7c8581a1e4117e6332f.0.llvm.5771694105957280067>

000000000000076a <.LBB3_2>:
     76a:	00002617          	auipc	a2,0x2
     76e:	b9660613          	addi	a2,a2,-1130 # 2300 <anon.84196f4204adc7c8581a1e4117e6332f.2.llvm.5771694105957280067>
     772:	02800593          	li	a1,40
     776:	00000097          	auipc	ra,0x0
     77a:	220080e7          	jalr	544(ra) # 996 <_ZN4core9panicking5panic17hada9984cc1d6f2faE>
	...

0000000000000780 <_ZN22buddy_system_allocator4Heap4init17h1ec4595427fcd582E>:
     780:	962e                	add	a2,a2,a1
     782:	059d                	addi	a1,a1,7
     784:	99e1                	andi	a1,a1,-8
     786:	ff867e93          	andi	t4,a2,-8
     78a:	16bee663          	bltu	t4,a1,8f6 <.LBB4_15>
     78e:	4701                	li	a4,0
     790:	00858613          	addi	a2,a1,8
     794:	12ceef63          	bltu	t4,a2,8d2 <_ZN22buddy_system_allocator4Heap4init17h1ec4595427fcd582E+0x152>
     798:	03f00813          	li	a6,63
     79c:	4885                	li	a7,1
     79e:	42fd                	li	t0,31
     7a0:	05555637          	lui	a2,0x5555
     7a4:	5556061b          	addiw	a2,a2,1365
     7a8:	0632                	slli	a2,a2,0xc
     7aa:	55560613          	addi	a2,a2,1365 # 5555555 <_ZN8user_lib4HEAP17h89aee303dfdd0618E+0x5541555>
     7ae:	0632                	slli	a2,a2,0xc
     7b0:	55560613          	addi	a2,a2,1365
     7b4:	0632                	slli	a2,a2,0xc
     7b6:	55560313          	addi	t1,a2,1365
     7ba:	03333637          	lui	a2,0x3333
     7be:	3336061b          	addiw	a2,a2,819
     7c2:	0632                	slli	a2,a2,0xc
     7c4:	33360613          	addi	a2,a2,819 # 3333333 <_ZN8user_lib4HEAP17h89aee303dfdd0618E+0x331f333>
     7c8:	0632                	slli	a2,a2,0xc
     7ca:	33360613          	addi	a2,a2,819
     7ce:	0632                	slli	a2,a2,0xc
     7d0:	33360f13          	addi	t5,a2,819
     7d4:	00f0f637          	lui	a2,0xf0f
     7d8:	0f16061b          	addiw	a2,a2,241
     7dc:	0632                	slli	a2,a2,0xc
     7de:	f0f60613          	addi	a2,a2,-241 # f0ef0f <_ZN8user_lib4HEAP17h89aee303dfdd0618E+0xefaf0f>
     7e2:	0632                	slli	a2,a2,0xc
     7e4:	0f160613          	addi	a2,a2,241
     7e8:	0632                	slli	a2,a2,0xc
     7ea:	f0f60393          	addi	t2,a2,-241
     7ee:	01010637          	lui	a2,0x1010
     7f2:	1016061b          	addiw	a2,a2,257
     7f6:	0642                	slli	a2,a2,0x10
     7f8:	10160613          	addi	a2,a2,257 # 1010101 <_ZN8user_lib4HEAP17h89aee303dfdd0618E+0xffc101>
     7fc:	0642                	slli	a2,a2,0x10
     7fe:	10160e13          	addi	t3,a2,257
     802:	40b006b3          	neg	a3,a1
     806:	40be8633          	sub	a2,t4,a1
     80a:	8eed                	and	a3,a3,a1
     80c:	ca59                	beqz	a2,8a2 <_ZN22buddy_system_allocator4Heap4init17h1ec4595427fcd582E+0x122>
     80e:	00165793          	srli	a5,a2,0x1
     812:	8e5d                	or	a2,a2,a5
     814:	00265793          	srli	a5,a2,0x2
     818:	8e5d                	or	a2,a2,a5
     81a:	00465793          	srli	a5,a2,0x4
     81e:	8e5d                	or	a2,a2,a5
     820:	00865793          	srli	a5,a2,0x8
     824:	8e5d                	or	a2,a2,a5
     826:	01065793          	srli	a5,a2,0x10
     82a:	8e5d                	or	a2,a2,a5
     82c:	02065793          	srli	a5,a2,0x20
     830:	8e5d                	or	a2,a2,a5
     832:	fff64613          	not	a2,a2
     836:	00165793          	srli	a5,a2,0x1
     83a:	0067f7b3          	and	a5,a5,t1
     83e:	8e1d                	sub	a2,a2,a5
     840:	01e677b3          	and	a5,a2,t5
     844:	8209                	srli	a2,a2,0x2
     846:	01e67633          	and	a2,a2,t5
     84a:	963e                	add	a2,a2,a5
     84c:	00465793          	srli	a5,a2,0x4
     850:	963e                	add	a2,a2,a5
     852:	00767633          	and	a2,a2,t2
     856:	03c60633          	mul	a2,a2,t3
     85a:	9261                	srli	a2,a2,0x38
     85c:	40c80633          	sub	a2,a6,a2
     860:	00c89633          	sll	a2,a7,a2
     864:	00d66363          	bltu	a2,a3,86a <_ZN22buddy_system_allocator4Heap4init17h1ec4595427fcd582E+0xea>
     868:	8636                	mv	a2,a3
     86a:	c629                	beqz	a2,8b4 <_ZN22buddy_system_allocator4Heap4init17h1ec4595427fcd582E+0x134>
     86c:	fff60693          	addi	a3,a2,-1
     870:	fff64793          	not	a5,a2
     874:	8efd                	and	a3,a3,a5
     876:	0016d793          	srli	a5,a3,0x1
     87a:	0067f7b3          	and	a5,a5,t1
     87e:	8e9d                	sub	a3,a3,a5
     880:	01e6f7b3          	and	a5,a3,t5
     884:	8289                	srli	a3,a3,0x2
     886:	01e6f6b3          	and	a3,a3,t5
     88a:	96be                	add	a3,a3,a5
     88c:	0046d793          	srli	a5,a3,0x4
     890:	96be                	add	a3,a3,a5
     892:	0076f6b3          	and	a3,a3,t2
     896:	03c686b3          	mul	a3,a3,t3
     89a:	92e1                	srli	a3,a3,0x38
     89c:	02d2f063          	bgeu	t0,a3,8bc <_ZN22buddy_system_allocator4Heap4init17h1ec4595427fcd582E+0x13c>
     8a0:	a83d                	j	8de <.LBB4_14>
     8a2:	04000613          	li	a2,64
     8a6:	40c80633          	sub	a2,a6,a2
     8aa:	00c89633          	sll	a2,a7,a2
     8ae:	fad67de3          	bgeu	a2,a3,868 <_ZN22buddy_system_allocator4Heap4init17h1ec4595427fcd582E+0xe8>
     8b2:	bf65                	j	86a <_ZN22buddy_system_allocator4Heap4init17h1ec4595427fcd582E+0xea>
     8b4:	04000693          	li	a3,64
     8b8:	02d2e363          	bltu	t0,a3,8de <.LBB4_14>
     8bc:	068e                	slli	a3,a3,0x3
     8be:	96aa                	add	a3,a3,a0
     8c0:	629c                	ld	a5,0(a3)
     8c2:	e19c                	sd	a5,0(a1)
     8c4:	e28c                	sd	a1,0(a3)
     8c6:	95b2                	add	a1,a1,a2
     8c8:	00858693          	addi	a3,a1,8
     8cc:	9732                	add	a4,a4,a2
     8ce:	f2defae3          	bgeu	t4,a3,802 <_ZN22buddy_system_allocator4Heap4init17h1ec4595427fcd582E+0x82>
     8d2:	11053583          	ld	a1,272(a0)
     8d6:	95ba                	add	a1,a1,a4
     8d8:	10b53823          	sd	a1,272(a0)
     8dc:	8082                	ret

00000000000008de <.LBB4_14>:
     8de:	00002617          	auipc	a2,0x2
     8e2:	ad260613          	addi	a2,a2,-1326 # 23b0 <.Lanon.49354c480c83630f87ddb5667090b2c7.3>
     8e6:	02000593          	li	a1,32
     8ea:	8536                	mv	a0,a3
     8ec:	00000097          	auipc	ra,0x0
     8f0:	0d6080e7          	jalr	214(ra) # 9c2 <_ZN4core9panicking18panic_bounds_check17hb127dc4cc37fde7aE>
	...

00000000000008f6 <.LBB4_15>:
     8f6:	00002517          	auipc	a0,0x2
     8fa:	a2250513          	addi	a0,a0,-1502 # 2318 <.Lanon.49354c480c83630f87ddb5667090b2c7.0>

00000000000008fe <.LBB4_16>:
     8fe:	00002617          	auipc	a2,0x2
     902:	a9a60613          	addi	a2,a2,-1382 # 2398 <.Lanon.49354c480c83630f87ddb5667090b2c7.2>
     906:	45f9                	li	a1,30
     908:	00000097          	auipc	ra,0x0
     90c:	08e080e7          	jalr	142(ra) # 996 <_ZN4core9panicking5panic17hada9984cc1d6f2faE>
	...

0000000000000912 <_ZN78_$LT$buddy_system_allocator..LockedHeap$u20$as$u20$core..ops..deref..Deref$GT$5deref17h90d41b3b9ac6dd82E>:
     912:	8082                	ret

0000000000000914 <_ZN4core3ops8function6FnOnce9call_once17h18f451d4e9740791E>:
     914:	6108                	ld	a0,0(a0)
     916:	a001                	j	916 <_ZN4core3ops8function6FnOnce9call_once17h18f451d4e9740791E+0x2>

0000000000000918 <_ZN4core3ptr13drop_in_place17h00027e84e2978af7E>:
     918:	8082                	ret

000000000000091a <_ZN36_$LT$T$u20$as$u20$core..any..Any$GT$7type_id17hc8534dacc0949383E>:
     91a:	faa78537          	lui	a0,0xfaa78
     91e:	32d5051b          	addiw	a0,a0,813
     922:	0532                	slli	a0,a0,0xc
     924:	5bd50513          	addi	a0,a0,1469 # fffffffffaa785bd <_ZN8user_lib4HEAP17h89aee303dfdd0618E+0xfffffffffaa645bd>
     928:	0532                	slli	a0,a0,0xc
     92a:	58b50513          	addi	a0,a0,1419
     92e:	0532                	slli	a0,a0,0xc
     930:	48b50513          	addi	a0,a0,1163
     934:	8082                	ret

0000000000000936 <_ZN4core6option18expect_none_failed17hb19d69425c6ad3b5E>:
     936:	7119                	addi	sp,sp,-128
     938:	fc86                	sd	ra,120(sp)
     93a:	e42a                	sd	a0,8(sp)
     93c:	e82e                	sd	a1,16(sp)
     93e:	ec32                	sd	a2,24(sp)
     940:	f036                	sd	a3,32(sp)
     942:	0028                	addi	a0,sp,8
     944:	ecaa                	sd	a0,88(sp)

0000000000000946 <.LBB117_1>:
     946:	00001517          	auipc	a0,0x1
     94a:	9c250513          	addi	a0,a0,-1598 # 1308 <_ZN44_$LT$$RF$T$u20$as$u20$core..fmt..Display$GT$3fmt17hb0118f6aeefbaeabE>
     94e:	f0aa                	sd	a0,96(sp)
     950:	0828                	addi	a0,sp,24
     952:	f4aa                	sd	a0,104(sp)

0000000000000954 <.LBB117_2>:
     954:	00001517          	auipc	a0,0x1
     958:	9ac50513          	addi	a0,a0,-1620 # 1300 <_ZN42_$LT$$RF$T$u20$as$u20$core..fmt..Debug$GT$3fmt17hc4f9c2310c108c28E>
     95c:	f8aa                	sd	a0,112(sp)

000000000000095e <.LBB117_3>:
     95e:	00002517          	auipc	a0,0x2
     962:	a9250513          	addi	a0,a0,-1390 # 23f0 <.Lanon.47b2c943d931c9d60ded85f366a71b31.178>
     966:	f42a                	sd	a0,40(sp)
     968:	4509                	li	a0,2
     96a:	f82a                	sd	a0,48(sp)
     96c:	fc02                	sd	zero,56(sp)
     96e:	08ac                	addi	a1,sp,88
     970:	e4ae                	sd	a1,72(sp)
     972:	e8aa                	sd	a0,80(sp)
     974:	1028                	addi	a0,sp,40
     976:	85ba                	mv	a1,a4
     978:	00000097          	auipc	ra,0x0
     97c:	08a080e7          	jalr	138(ra) # a02 <_ZN4core9panicking9panic_fmt17h2f823c72a23f8e31E>
	...

0000000000000982 <_ZN4core5panic9PanicInfo7message17h784f4369f0e35bc0E>:
     982:	6908                	ld	a0,16(a0)
     984:	8082                	ret

0000000000000986 <_ZN4core5panic9PanicInfo8location17h5276564d58213a23E>:
     986:	6d08                	ld	a0,24(a0)
     988:	8082                	ret

000000000000098a <_ZN4core5panic8Location4file17h3a82b9a2ab5b9c63E>:
     98a:	6110                	ld	a2,0(a0)
     98c:	650c                	ld	a1,8(a0)
     98e:	8532                	mv	a0,a2
     990:	8082                	ret

0000000000000992 <_ZN4core5panic8Location4line17h5e5073e8fe2bb208E>:
     992:	4908                	lw	a0,16(a0)
     994:	8082                	ret

0000000000000996 <_ZN4core9panicking5panic17hada9984cc1d6f2faE>:
     996:	715d                	addi	sp,sp,-80
     998:	e486                	sd	ra,72(sp)
     99a:	fc2a                	sd	a0,56(sp)
     99c:	e0ae                	sd	a1,64(sp)
     99e:	1828                	addi	a0,sp,56
     9a0:	e42a                	sd	a0,8(sp)
     9a2:	4505                	li	a0,1
     9a4:	e82a                	sd	a0,16(sp)
     9a6:	ec02                	sd	zero,24(sp)

00000000000009a8 <.LBB128_1>:
     9a8:	00002517          	auipc	a0,0x2
     9ac:	a4050513          	addi	a0,a0,-1472 # 23e8 <.Lanon.47b2c943d931c9d60ded85f366a71b31.177>
     9b0:	f42a                	sd	a0,40(sp)
     9b2:	f802                	sd	zero,48(sp)
     9b4:	0028                	addi	a0,sp,8
     9b6:	85b2                	mv	a1,a2
     9b8:	00000097          	auipc	ra,0x0
     9bc:	04a080e7          	jalr	74(ra) # a02 <_ZN4core9panicking9panic_fmt17h2f823c72a23f8e31E>
	...

00000000000009c2 <_ZN4core9panicking18panic_bounds_check17hb127dc4cc37fde7aE>:
     9c2:	7159                	addi	sp,sp,-112
     9c4:	f486                	sd	ra,104(sp)
     9c6:	e42a                	sd	a0,8(sp)
     9c8:	e82e                	sd	a1,16(sp)
     9ca:	0808                	addi	a0,sp,16
     9cc:	e4aa                	sd	a0,72(sp)

00000000000009ce <.LBB129_1>:
     9ce:	00001517          	auipc	a0,0x1
     9d2:	91250513          	addi	a0,a0,-1774 # 12e0 <_ZN4core3fmt3num3imp52_$LT$impl$u20$core..fmt..Display$u20$for$u20$u64$GT$3fmt17h264432b89ab7cfccE>
     9d6:	e8aa                	sd	a0,80(sp)
     9d8:	002c                	addi	a1,sp,8
     9da:	ecae                	sd	a1,88(sp)
     9dc:	f0aa                	sd	a0,96(sp)

00000000000009de <.LBB129_2>:
     9de:	00002517          	auipc	a0,0x2
     9e2:	a6a50513          	addi	a0,a0,-1430 # 2448 <.Lanon.47b2c943d931c9d60ded85f366a71b31.188>
     9e6:	ec2a                	sd	a0,24(sp)
     9e8:	4509                	li	a0,2
     9ea:	f02a                	sd	a0,32(sp)
     9ec:	f402                	sd	zero,40(sp)
     9ee:	00ac                	addi	a1,sp,72
     9f0:	fc2e                	sd	a1,56(sp)
     9f2:	e0aa                	sd	a0,64(sp)
     9f4:	0828                	addi	a0,sp,24
     9f6:	85b2                	mv	a1,a2
     9f8:	00000097          	auipc	ra,0x0
     9fc:	00a080e7          	jalr	10(ra) # a02 <_ZN4core9panicking9panic_fmt17h2f823c72a23f8e31E>
	...

0000000000000a02 <_ZN4core9panicking9panic_fmt17h2f823c72a23f8e31E>:
     a02:	7179                	addi	sp,sp,-48
     a04:	f406                	sd	ra,40(sp)

0000000000000a06 <.LBB130_1>:
     a06:	00002617          	auipc	a2,0x2
     a0a:	9e260613          	addi	a2,a2,-1566 # 23e8 <.Lanon.47b2c943d931c9d60ded85f366a71b31.177>
     a0e:	e432                	sd	a2,8(sp)

0000000000000a10 <.LBB130_2>:
     a10:	00002617          	auipc	a2,0x2
     a14:	a0060613          	addi	a2,a2,-1536 # 2410 <.Lanon.47b2c943d931c9d60ded85f366a71b31.179>
     a18:	e832                	sd	a2,16(sp)
     a1a:	ec2a                	sd	a0,24(sp)
     a1c:	f02e                	sd	a1,32(sp)
     a1e:	0028                	addi	a0,sp,8
     a20:	00000097          	auipc	ra,0x0
     a24:	af8080e7          	jalr	-1288(ra) # 518 <rust_begin_unwind>
	...

0000000000000a2a <_ZN59_$LT$core..fmt..Arguments$u20$as$u20$core..fmt..Display$GT$3fmt17ha5d29d1af7bdcf5aE>:
     a2a:	7139                	addi	sp,sp,-64
     a2c:	fc06                	sd	ra,56(sp)
     a2e:	7510                	ld	a2,40(a0)
     a30:	7118                	ld	a4,32(a0)
     a32:	7194                	ld	a3,32(a1)
     a34:	758c                	ld	a1,40(a1)
     a36:	f832                	sd	a2,48(sp)
     a38:	f43a                	sd	a4,40(sp)
     a3a:	6d10                	ld	a2,24(a0)
     a3c:	6918                	ld	a4,16(a0)
     a3e:	651c                	ld	a5,8(a0)
     a40:	6108                	ld	a0,0(a0)
     a42:	f032                	sd	a2,32(sp)
     a44:	ec3a                	sd	a4,24(sp)
     a46:	e83e                	sd	a5,16(sp)
     a48:	e42a                	sd	a0,8(sp)
     a4a:	0030                	addi	a2,sp,8
     a4c:	8536                	mv	a0,a3
     a4e:	00000097          	auipc	ra,0x0
     a52:	00e080e7          	jalr	14(ra) # a5c <_ZN4core3fmt5write17hab57c96bb669b93aE>
     a56:	70e2                	ld	ra,56(sp)
     a58:	6121                	addi	sp,sp,64
     a5a:	8082                	ret

0000000000000a5c <_ZN4core3fmt5write17hab57c96bb669b93aE>:
     a5c:	7135                	addi	sp,sp,-160
     a5e:	ed06                	sd	ra,152(sp)
     a60:	e922                	sd	s0,144(sp)
     a62:	e526                	sd	s1,136(sp)
     a64:	e14a                	sd	s2,128(sp)
     a66:	fcce                	sd	s3,120(sp)
     a68:	f8d2                	sd	s4,112(sp)
     a6a:	f4d6                	sd	s5,104(sp)
     a6c:	f0da                	sd	s6,96(sp)
     a6e:	ecde                	sd	s7,88(sp)
     a70:	e8e2                	sd	s8,80(sp)
     a72:	e4e6                	sd	s9,72(sp)
     a74:	e0ea                	sd	s10,64(sp)
     a76:	4685                	li	a3,1
     a78:	1696                	slli	a3,a3,0x25
     a7a:	f836                	sd	a3,48(sp)
     a7c:	468d                	li	a3,3
     a7e:	02d10c23          	sb	a3,56(sp)
     a82:	6a04                	ld	s1,16(a2)
     a84:	e002                	sd	zero,0(sp)
     a86:	e802                	sd	zero,16(sp)
     a88:	f02a                	sd	a0,32(sp)
     a8a:	f42e                	sd	a1,40(sp)
     a8c:	10048163          	beqz	s1,b8e <.LBB162_42+0xa>
     a90:	6e14                	ld	a3,24(a2)
     a92:	00863a03          	ld	s4,8(a2)
     a96:	00063983          	ld	s3,0(a2)
     a9a:	8bd2                	mv	s7,s4
     a9c:	00da6363          	bltu	s4,a3,aa2 <_ZN4core3fmt5write17hab57c96bb669b93aE+0x46>
     aa0:	8bb6                	mv	s7,a3
     aa2:	140b8463          	beqz	s7,bea <.LBB162_42+0x66>
     aa6:	02063b03          	ld	s6,32(a2)
     aaa:	02863a83          	ld	s5,40(a2)
     aae:	0009b683          	ld	a3,0(s3)
     ab2:	0089b603          	ld	a2,8(s3)
     ab6:	6d98                	ld	a4,24(a1)
     ab8:	85b6                	mv	a1,a3
     aba:	9702                	jalr	a4
     abc:	14051563          	bnez	a0,c06 <.LBB162_42+0x82>
     ac0:	4401                	li	s0,0
     ac2:	03048493          	addi	s1,s1,48
     ac6:	01898d13          	addi	s10,s3,24
     aca:	890a                	mv	s2,sp
     acc:	4c09                	li	s8,2

0000000000000ace <.LBB162_41>:
     ace:	00000c97          	auipc	s9,0x0
     ad2:	e46c8c93          	addi	s9,s9,-442 # 914 <_ZN4core3ops8function6FnOnce9call_once17h18f451d4e9740791E>
     ad6:	ff84a503          	lw	a0,-8(s1)
     ada:	da2a                	sw	a0,52(sp)
     adc:	00048503          	lb	a0,0(s1)
     ae0:	02a10c23          	sb	a0,56(sp)
     ae4:	ffc4a503          	lw	a0,-4(s1)
     ae8:	d82a                	sw	a0,48(sp)
     aea:	fe84b603          	ld	a2,-24(s1)
     aee:	ff04b503          	ld	a0,-16(s1)
     af2:	ce09                	beqz	a2,b0c <.LBB162_41+0x3e>
     af4:	4581                	li	a1,0
     af6:	01860e63          	beq	a2,s8,b12 <.LBB162_41+0x44>
     afa:	13557763          	bgeu	a0,s5,c28 <.LBB162_43>
     afe:	0512                	slli	a0,a0,0x4
     b00:	955a                	add	a0,a0,s6
     b02:	650c                	ld	a1,8(a0)
     b04:	01959663          	bne	a1,s9,b10 <.LBB162_41+0x42>
     b08:	6108                	ld	a0,0(a0)
     b0a:	6108                	ld	a0,0(a0)
     b0c:	4585                	li	a1,1
     b0e:	a011                	j	b12 <.LBB162_41+0x44>
     b10:	4581                	li	a1,0
     b12:	e02e                	sd	a1,0(sp)
     b14:	e42a                	sd	a0,8(sp)
     b16:	fd84b603          	ld	a2,-40(s1)
     b1a:	fe04b503          	ld	a0,-32(s1)
     b1e:	ce09                	beqz	a2,b38 <.LBB162_41+0x6a>
     b20:	4581                	li	a1,0
     b22:	01860c63          	beq	a2,s8,b3a <.LBB162_41+0x6c>
     b26:	11557163          	bgeu	a0,s5,c28 <.LBB162_43>
     b2a:	0512                	slli	a0,a0,0x4
     b2c:	955a                	add	a0,a0,s6
     b2e:	650c                	ld	a1,8(a0)
     b30:	05959363          	bne	a1,s9,b76 <.LBB162_41+0xa8>
     b34:	6108                	ld	a0,0(a0)
     b36:	6108                	ld	a0,0(a0)
     b38:	4585                	li	a1,1
     b3a:	e82e                	sd	a1,16(sp)
     b3c:	ec2a                	sd	a0,24(sp)
     b3e:	fd04b503          	ld	a0,-48(s1)
     b42:	05557163          	bgeu	a0,s5,b84 <.LBB162_42>
     b46:	0512                	slli	a0,a0,0x4
     b48:	00ab05b3          	add	a1,s6,a0
     b4c:	6188                	ld	a0,0(a1)
     b4e:	6590                	ld	a2,8(a1)
     b50:	85ca                	mv	a1,s2
     b52:	9602                	jalr	a2
     b54:	e94d                	bnez	a0,c06 <.LBB162_42+0x82>
     b56:	0405                	addi	s0,s0,1
     b58:	09747a63          	bgeu	s0,s7,bec <.LBB162_42+0x68>
     b5c:	76a2                	ld	a3,40(sp)
     b5e:	7502                	ld	a0,32(sp)
     b60:	ff8d3583          	ld	a1,-8(s10)
     b64:	000d3603          	ld	a2,0(s10)
     b68:	6e94                	ld	a3,24(a3)
     b6a:	03848493          	addi	s1,s1,56
     b6e:	0d41                	addi	s10,s10,16
     b70:	9682                	jalr	a3
     b72:	d135                	beqz	a0,ad6 <.LBB162_41+0x8>
     b74:	a849                	j	c06 <.LBB162_42+0x82>
     b76:	4581                	li	a1,0
     b78:	e82e                	sd	a1,16(sp)
     b7a:	ec2a                	sd	a0,24(sp)
     b7c:	fd04b503          	ld	a0,-48(s1)
     b80:	fd5563e3          	bltu	a0,s5,b46 <.LBB162_41+0x78>

0000000000000b84 <.LBB162_42>:
     b84:	00002617          	auipc	a2,0x2
     b88:	9c460613          	addi	a2,a2,-1596 # 2548 <.Lanon.47b2c943d931c9d60ded85f366a71b31.226>
     b8c:	a055                	j	c30 <.LBB162_43+0x8>
     b8e:	7200                	ld	s0,32(a2)
     b90:	7614                	ld	a3,40(a2)
     b92:	00863a03          	ld	s4,8(a2)
     b96:	00063983          	ld	s3,0(a2)
     b9a:	8bd2                	mv	s7,s4
     b9c:	00da6363          	bltu	s4,a3,ba2 <.LBB162_42+0x1e>
     ba0:	8bb6                	mv	s7,a3
     ba2:	040b8463          	beqz	s7,bea <.LBB162_42+0x66>
     ba6:	0009b683          	ld	a3,0(s3)
     baa:	0089b603          	ld	a2,8(s3)
     bae:	6d98                	ld	a4,24(a1)
     bb0:	85b6                	mv	a1,a3
     bb2:	9702                	jalr	a4
     bb4:	e929                	bnez	a0,c06 <.LBB162_42+0x82>
     bb6:	4481                	li	s1,0
     bb8:	0421                	addi	s0,s0,8
     bba:	01898a93          	addi	s5,s3,24
     bbe:	890a                	mv	s2,sp
     bc0:	6010                	ld	a2,0(s0)
     bc2:	ff843503          	ld	a0,-8(s0)
     bc6:	85ca                	mv	a1,s2
     bc8:	9602                	jalr	a2
     bca:	ed15                	bnez	a0,c06 <.LBB162_42+0x82>
     bcc:	0485                	addi	s1,s1,1
     bce:	0174ff63          	bgeu	s1,s7,bec <.LBB162_42+0x68>
     bd2:	76a2                	ld	a3,40(sp)
     bd4:	7502                	ld	a0,32(sp)
     bd6:	ff8ab583          	ld	a1,-8(s5)
     bda:	000ab603          	ld	a2,0(s5)
     bde:	6e94                	ld	a3,24(a3)
     be0:	0441                	addi	s0,s0,16
     be2:	0ac1                	addi	s5,s5,16
     be4:	9682                	jalr	a3
     be6:	dd69                	beqz	a0,bc0 <.LBB162_42+0x3c>
     be8:	a839                	j	c06 <.LBB162_42+0x82>
     bea:	4b81                	li	s7,0
     bec:	014bff63          	bgeu	s7,s4,c0a <.LBB162_42+0x86>
     bf0:	7502                	ld	a0,32(sp)
     bf2:	76a2                	ld	a3,40(sp)
     bf4:	004b9593          	slli	a1,s7,0x4
     bf8:	00b98633          	add	a2,s3,a1
     bfc:	620c                	ld	a1,0(a2)
     bfe:	6610                	ld	a2,8(a2)
     c00:	6e94                	ld	a3,24(a3)
     c02:	9682                	jalr	a3
     c04:	c119                	beqz	a0,c0a <.LBB162_42+0x86>
     c06:	4505                	li	a0,1
     c08:	a011                	j	c0c <.LBB162_42+0x88>
     c0a:	4501                	li	a0,0
     c0c:	6d06                	ld	s10,64(sp)
     c0e:	6ca6                	ld	s9,72(sp)
     c10:	6c46                	ld	s8,80(sp)
     c12:	6be6                	ld	s7,88(sp)
     c14:	7b06                	ld	s6,96(sp)
     c16:	7aa6                	ld	s5,104(sp)
     c18:	7a46                	ld	s4,112(sp)
     c1a:	79e6                	ld	s3,120(sp)
     c1c:	690a                	ld	s2,128(sp)
     c1e:	64aa                	ld	s1,136(sp)
     c20:	644a                	ld	s0,144(sp)
     c22:	60ea                	ld	ra,152(sp)
     c24:	610d                	addi	sp,sp,160
     c26:	8082                	ret

0000000000000c28 <.LBB162_43>:
     c28:	00002617          	auipc	a2,0x2
     c2c:	93860613          	addi	a2,a2,-1736 # 2560 <.Lanon.47b2c943d931c9d60ded85f366a71b31.227>
     c30:	85d6                	mv	a1,s5
     c32:	00000097          	auipc	ra,0x0
     c36:	d90080e7          	jalr	-624(ra) # 9c2 <_ZN4core9panicking18panic_bounds_check17hb127dc4cc37fde7aE>
	...

0000000000000c3c <_ZN4core3fmt9Formatter12pad_integral17hd6c3049cc532f3cdE>:
     c3c:	7159                	addi	sp,sp,-112
     c3e:	f486                	sd	ra,104(sp)
     c40:	f0a2                	sd	s0,96(sp)
     c42:	eca6                	sd	s1,88(sp)
     c44:	e8ca                	sd	s2,80(sp)
     c46:	e4ce                	sd	s3,72(sp)
     c48:	e0d2                	sd	s4,64(sp)
     c4a:	fc56                	sd	s5,56(sp)
     c4c:	f85a                	sd	s6,48(sp)
     c4e:	f45e                	sd	s7,40(sp)
     c50:	f062                	sd	s8,32(sp)
     c52:	ec66                	sd	s9,24(sp)
     c54:	e86a                	sd	s10,16(sp)
     c56:	e46e                	sd	s11,8(sp)
     c58:	89be                	mv	s3,a5
     c5a:	893a                	mv	s2,a4
     c5c:	8ab6                	mv	s5,a3
     c5e:	842a                	mv	s0,a0
     c60:	c9b1                	beqz	a1,cb4 <_ZN4core3fmt9Formatter12pad_integral17hd6c3049cc532f3cdE+0x78>
     c62:	03046503          	lwu	a0,48(s0)
     c66:	00157593          	andi	a1,a0,1
     c6a:	00110a37          	lui	s4,0x110
     c6e:	c199                	beqz	a1,c74 <_ZN4core3fmt9Formatter12pad_integral17hd6c3049cc532f3cdE+0x38>
     c70:	02b00a13          	li	s4,43
     c74:	01358cb3          	add	s9,a1,s3
     c78:	00457593          	andi	a1,a0,4
     c7c:	c5a9                	beqz	a1,cc6 <_ZN4core3fmt9Formatter12pad_integral17hd6c3049cc532f3cdE+0x8a>
     c7e:	4581                	li	a1,0
     c80:	020a8063          	beqz	s5,ca0 <_ZN4core3fmt9Formatter12pad_integral17hd6c3049cc532f3cdE+0x64>
     c84:	86d6                	mv	a3,s5
     c86:	8732                	mv	a4,a2
     c88:	00074783          	lbu	a5,0(a4)
     c8c:	0705                	addi	a4,a4,1
     c8e:	0c07f793          	andi	a5,a5,192
     c92:	0807c793          	xori	a5,a5,128
     c96:	0017b793          	seqz	a5,a5
     c9a:	16fd                	addi	a3,a3,-1
     c9c:	95be                	add	a1,a1,a5
     c9e:	f6ed                	bnez	a3,c88 <_ZN4core3fmt9Formatter12pad_integral17hd6c3049cc532f3cdE+0x4c>
     ca0:	015c86b3          	add	a3,s9,s5
     ca4:	40b68cb3          	sub	s9,a3,a1
     ca8:	8b32                	mv	s6,a2
     caa:	600c                	ld	a1,0(s0)
     cac:	4d85                	li	s11,1
     cae:	03b58163          	beq	a1,s11,cd0 <_ZN4core3fmt9Formatter12pad_integral17hd6c3049cc532f3cdE+0x94>
     cb2:	a0a9                	j	cfc <_ZN4core3fmt9Formatter12pad_integral17hd6c3049cc532f3cdE+0xc0>
     cb4:	03046503          	lwu	a0,48(s0)
     cb8:	00198c93          	addi	s9,s3,1
     cbc:	02d00a13          	li	s4,45
     cc0:	00457593          	andi	a1,a0,4
     cc4:	fdcd                	bnez	a1,c7e <_ZN4core3fmt9Formatter12pad_integral17hd6c3049cc532f3cdE+0x42>
     cc6:	4b01                	li	s6,0
     cc8:	600c                	ld	a1,0(s0)
     cca:	4d85                	li	s11,1
     ccc:	03b59863          	bne	a1,s11,cfc <_ZN4core3fmt9Formatter12pad_integral17hd6c3049cc532f3cdE+0xc0>
     cd0:	00843d03          	ld	s10,8(s0)
     cd4:	03acf463          	bgeu	s9,s10,cfc <_ZN4core3fmt9Formatter12pad_integral17hd6c3049cc532f3cdE+0xc0>
     cd8:	8921                	andi	a0,a0,8
     cda:	e12d                	bnez	a0,d3c <_ZN4core3fmt9Formatter12pad_integral17hd6c3049cc532f3cdE+0x100>
     cdc:	03844503          	lbu	a0,56(s0)
     ce0:	4605                	li	a2,1
     ce2:	468d                	li	a3,3
     ce4:	4585                	li	a1,1
     ce6:	00d50363          	beq	a0,a3,cec <_ZN4core3fmt9Formatter12pad_integral17hd6c3049cc532f3cdE+0xb0>
     cea:	85aa                	mv	a1,a0
     cec:	419d0533          	sub	a0,s10,s9
     cf0:	08b64963          	blt	a2,a1,d82 <_ZN4core3fmt9Formatter12pad_integral17hd6c3049cc532f3cdE+0x146>
     cf4:	e9d1                	bnez	a1,d88 <_ZN4core3fmt9Formatter12pad_integral17hd6c3049cc532f3cdE+0x14c>
     cf6:	8c2a                	mv	s8,a0
     cf8:	4501                	li	a0,0
     cfa:	a05d                	j	da0 <_ZN4core3fmt9Formatter12pad_integral17hd6c3049cc532f3cdE+0x164>
     cfc:	8522                	mv	a0,s0
     cfe:	85d2                	mv	a1,s4
     d00:	865a                	mv	a2,s6
     d02:	86d6                	mv	a3,s5
     d04:	00000097          	auipc	ra,0x0
     d08:	158080e7          	jalr	344(ra) # e5c <_ZN4core3fmt9Formatter12pad_integral12write_prefix17hf78ea515610d6c2eE>
     d0c:	e901                	bnez	a0,d1c <_ZN4core3fmt9Formatter12pad_integral17hd6c3049cc532f3cdE+0xe0>
     d0e:	740c                	ld	a1,40(s0)
     d10:	7008                	ld	a0,32(s0)
     d12:	6d94                	ld	a3,24(a1)
     d14:	85ca                	mv	a1,s2
     d16:	864e                	mv	a2,s3
     d18:	9682                	jalr	a3
     d1a:	8daa                	mv	s11,a0
     d1c:	856e                	mv	a0,s11
     d1e:	6da2                	ld	s11,8(sp)
     d20:	6d42                	ld	s10,16(sp)
     d22:	6ce2                	ld	s9,24(sp)
     d24:	7c02                	ld	s8,32(sp)
     d26:	7ba2                	ld	s7,40(sp)
     d28:	7b42                	ld	s6,48(sp)
     d2a:	7ae2                	ld	s5,56(sp)
     d2c:	6a06                	ld	s4,64(sp)
     d2e:	69a6                	ld	s3,72(sp)
     d30:	6946                	ld	s2,80(sp)
     d32:	64e6                	ld	s1,88(sp)
     d34:	7406                	ld	s0,96(sp)
     d36:	70a6                	ld	ra,104(sp)
     d38:	6165                	addi	sp,sp,112
     d3a:	8082                	ret
     d3c:	03446b83          	lwu	s7,52(s0)
     d40:	03000513          	li	a0,48
     d44:	03844c03          	lbu	s8,56(s0)
     d48:	d848                	sw	a0,52(s0)
     d4a:	4d85                	li	s11,1
     d4c:	03b40c23          	sb	s11,56(s0)
     d50:	8522                	mv	a0,s0
     d52:	85d2                	mv	a1,s4
     d54:	865a                	mv	a2,s6
     d56:	86d6                	mv	a3,s5
     d58:	00000097          	auipc	ra,0x0
     d5c:	104080e7          	jalr	260(ra) # e5c <_ZN4core3fmt9Formatter12pad_integral12write_prefix17hf78ea515610d6c2eE>
     d60:	fd55                	bnez	a0,d1c <_ZN4core3fmt9Formatter12pad_integral17hd6c3049cc532f3cdE+0xe0>
     d62:	03844503          	lbu	a0,56(s0)
     d66:	4605                	li	a2,1
     d68:	468d                	li	a3,3
     d6a:	4585                	li	a1,1
     d6c:	00d50363          	beq	a0,a3,d72 <_ZN4core3fmt9Formatter12pad_integral17hd6c3049cc532f3cdE+0x136>
     d70:	85aa                	mv	a1,a0
     d72:	419d0533          	sub	a0,s10,s9
     d76:	00b64b63          	blt	a2,a1,d8c <_ZN4core3fmt9Formatter12pad_integral17hd6c3049cc532f3cdE+0x150>
     d7a:	ed81                	bnez	a1,d92 <_ZN4core3fmt9Formatter12pad_integral17hd6c3049cc532f3cdE+0x156>
     d7c:	8aaa                	mv	s5,a0
     d7e:	4501                	li	a0,0
     d80:	a041                	j	e00 <_ZN4core3fmt9Formatter12pad_integral17hd6c3049cc532f3cdE+0x1c4>
     d82:	460d                	li	a2,3
     d84:	00c59963          	bne	a1,a2,d96 <_ZN4core3fmt9Formatter12pad_integral17hd6c3049cc532f3cdE+0x15a>
     d88:	4c01                	li	s8,0
     d8a:	a819                	j	da0 <_ZN4core3fmt9Formatter12pad_integral17hd6c3049cc532f3cdE+0x164>
     d8c:	460d                	li	a2,3
     d8e:	06c59463          	bne	a1,a2,df6 <_ZN4core3fmt9Formatter12pad_integral17hd6c3049cc532f3cdE+0x1ba>
     d92:	4a81                	li	s5,0
     d94:	a0b5                	j	e00 <_ZN4core3fmt9Formatter12pad_integral17hd6c3049cc532f3cdE+0x1c4>
     d96:	00150593          	addi	a1,a0,1
     d9a:	8105                	srli	a0,a0,0x1
     d9c:	0015dc13          	srli	s8,a1,0x1
     da0:	00150493          	addi	s1,a0,1
     da4:	14fd                	addi	s1,s1,-1
     da6:	c881                	beqz	s1,db6 <_ZN4core3fmt9Formatter12pad_integral17hd6c3049cc532f3cdE+0x17a>
     da8:	740c                	ld	a1,40(s0)
     daa:	7008                	ld	a0,32(s0)
     dac:	7190                	ld	a2,32(a1)
     dae:	584c                	lw	a1,52(s0)
     db0:	9602                	jalr	a2
     db2:	d96d                	beqz	a0,da4 <_ZN4core3fmt9Formatter12pad_integral17hd6c3049cc532f3cdE+0x168>
     db4:	a085                	j	e14 <_ZN4core3fmt9Formatter12pad_integral17hd6c3049cc532f3cdE+0x1d8>
     db6:	03446b83          	lwu	s7,52(s0)
     dba:	8522                	mv	a0,s0
     dbc:	85d2                	mv	a1,s4
     dbe:	865a                	mv	a2,s6
     dc0:	86d6                	mv	a3,s5
     dc2:	00000097          	auipc	ra,0x0
     dc6:	09a080e7          	jalr	154(ra) # e5c <_ZN4core3fmt9Formatter12pad_integral12write_prefix17hf78ea515610d6c2eE>
     dca:	4d85                	li	s11,1
     dcc:	f921                	bnez	a0,d1c <_ZN4core3fmt9Formatter12pad_integral17hd6c3049cc532f3cdE+0xe0>
     dce:	740c                	ld	a1,40(s0)
     dd0:	7008                	ld	a0,32(s0)
     dd2:	6d94                	ld	a3,24(a1)
     dd4:	85ca                	mv	a1,s2
     dd6:	864e                	mv	a2,s3
     dd8:	9682                	jalr	a3
     dda:	f129                	bnez	a0,d1c <_ZN4core3fmt9Formatter12pad_integral17hd6c3049cc532f3cdE+0xe0>
     ddc:	02043903          	ld	s2,32(s0)
     de0:	7400                	ld	s0,40(s0)
     de2:	001c0493          	addi	s1,s8,1
     de6:	14fd                	addi	s1,s1,-1
     de8:	c0b5                	beqz	s1,e4c <_ZN4core3fmt9Formatter12pad_integral17hd6c3049cc532f3cdE+0x210>
     dea:	7010                	ld	a2,32(s0)
     dec:	854a                	mv	a0,s2
     dee:	85de                	mv	a1,s7
     df0:	9602                	jalr	a2
     df2:	d975                	beqz	a0,de6 <_ZN4core3fmt9Formatter12pad_integral17hd6c3049cc532f3cdE+0x1aa>
     df4:	b725                	j	d1c <_ZN4core3fmt9Formatter12pad_integral17hd6c3049cc532f3cdE+0xe0>
     df6:	00150593          	addi	a1,a0,1
     dfa:	8105                	srli	a0,a0,0x1
     dfc:	0015da93          	srli	s5,a1,0x1
     e00:	00150493          	addi	s1,a0,1
     e04:	14fd                	addi	s1,s1,-1
     e06:	c889                	beqz	s1,e18 <_ZN4core3fmt9Formatter12pad_integral17hd6c3049cc532f3cdE+0x1dc>
     e08:	740c                	ld	a1,40(s0)
     e0a:	7008                	ld	a0,32(s0)
     e0c:	7190                	ld	a2,32(a1)
     e0e:	584c                	lw	a1,52(s0)
     e10:	9602                	jalr	a2
     e12:	d96d                	beqz	a0,e04 <_ZN4core3fmt9Formatter12pad_integral17hd6c3049cc532f3cdE+0x1c8>
     e14:	4d85                	li	s11,1
     e16:	b719                	j	d1c <_ZN4core3fmt9Formatter12pad_integral17hd6c3049cc532f3cdE+0xe0>
     e18:	740c                	ld	a1,40(s0)
     e1a:	03446a03          	lwu	s4,52(s0)
     e1e:	7008                	ld	a0,32(s0)
     e20:	6d94                	ld	a3,24(a1)
     e22:	85ca                	mv	a1,s2
     e24:	864e                	mv	a2,s3
     e26:	9682                	jalr	a3
     e28:	4d85                	li	s11,1
     e2a:	ee0519e3          	bnez	a0,d1c <_ZN4core3fmt9Formatter12pad_integral17hd6c3049cc532f3cdE+0xe0>
     e2e:	02043903          	ld	s2,32(s0)
     e32:	02843983          	ld	s3,40(s0)
     e36:	001a8493          	addi	s1,s5,1
     e3a:	14fd                	addi	s1,s1,-1
     e3c:	c891                	beqz	s1,e50 <_ZN4core3fmt9Formatter12pad_integral17hd6c3049cc532f3cdE+0x214>
     e3e:	0209b603          	ld	a2,32(s3)
     e42:	854a                	mv	a0,s2
     e44:	85d2                	mv	a1,s4
     e46:	9602                	jalr	a2
     e48:	d96d                	beqz	a0,e3a <_ZN4core3fmt9Formatter12pad_integral17hd6c3049cc532f3cdE+0x1fe>
     e4a:	bdc9                	j	d1c <_ZN4core3fmt9Formatter12pad_integral17hd6c3049cc532f3cdE+0xe0>
     e4c:	4d81                	li	s11,0
     e4e:	b5f9                	j	d1c <_ZN4core3fmt9Formatter12pad_integral17hd6c3049cc532f3cdE+0xe0>
     e50:	4d81                	li	s11,0
     e52:	03742a23          	sw	s7,52(s0)
     e56:	03840c23          	sb	s8,56(s0)
     e5a:	b5c9                	j	d1c <_ZN4core3fmt9Formatter12pad_integral17hd6c3049cc532f3cdE+0xe0>

0000000000000e5c <_ZN4core3fmt9Formatter12pad_integral12write_prefix17hf78ea515610d6c2eE>:
     e5c:	1101                	addi	sp,sp,-32
     e5e:	ec06                	sd	ra,24(sp)
     e60:	e822                	sd	s0,16(sp)
     e62:	e426                	sd	s1,8(sp)
     e64:	e04a                	sd	s2,0(sp)
     e66:	02059713          	slli	a4,a1,0x20
     e6a:	9301                	srli	a4,a4,0x20
     e6c:	001107b7          	lui	a5,0x110
     e70:	8936                	mv	s2,a3
     e72:	84b2                	mv	s1,a2
     e74:	842a                	mv	s0,a0
     e76:	00f70963          	beq	a4,a5,e88 <_ZN4core3fmt9Formatter12pad_integral12write_prefix17hf78ea515610d6c2eE+0x2c>
     e7a:	7410                	ld	a2,40(s0)
     e7c:	7008                	ld	a0,32(s0)
     e7e:	7210                	ld	a2,32(a2)
     e80:	9602                	jalr	a2
     e82:	85aa                	mv	a1,a0
     e84:	4505                	li	a0,1
     e86:	e991                	bnez	a1,e9a <_ZN4core3fmt9Formatter12pad_integral12write_prefix17hf78ea515610d6c2eE+0x3e>
     e88:	c881                	beqz	s1,e98 <_ZN4core3fmt9Formatter12pad_integral12write_prefix17hf78ea515610d6c2eE+0x3c>
     e8a:	740c                	ld	a1,40(s0)
     e8c:	7008                	ld	a0,32(s0)
     e8e:	6d94                	ld	a3,24(a1)
     e90:	85a6                	mv	a1,s1
     e92:	864a                	mv	a2,s2
     e94:	9682                	jalr	a3
     e96:	a011                	j	e9a <_ZN4core3fmt9Formatter12pad_integral12write_prefix17hf78ea515610d6c2eE+0x3e>
     e98:	4501                	li	a0,0
     e9a:	6902                	ld	s2,0(sp)
     e9c:	64a2                	ld	s1,8(sp)
     e9e:	6442                	ld	s0,16(sp)
     ea0:	60e2                	ld	ra,24(sp)
     ea2:	6105                	addi	sp,sp,32
     ea4:	8082                	ret

0000000000000ea6 <_ZN4core3fmt9Formatter3pad17h017f758b28b77478E>:
     ea6:	7139                	addi	sp,sp,-64
     ea8:	fc06                	sd	ra,56(sp)
     eaa:	f822                	sd	s0,48(sp)
     eac:	f426                	sd	s1,40(sp)
     eae:	f04a                	sd	s2,32(sp)
     eb0:	ec4e                	sd	s3,24(sp)
     eb2:	e852                	sd	s4,16(sp)
     eb4:	e456                	sd	s5,8(sp)
     eb6:	e05a                	sd	s6,0(sp)
     eb8:	8b2a                	mv	s6,a0
     eba:	00053383          	ld	t2,0(a0)
     ebe:	6908                	ld	a0,16(a0)
     ec0:	4685                	li	a3,1
     ec2:	8a32                	mv	s4,a2
     ec4:	892e                	mv	s2,a1
     ec6:	00d39563          	bne	t2,a3,ed0 <_ZN4core3fmt9Formatter3pad17h017f758b28b77478E+0x2a>
     eca:	00d50563          	beq	a0,a3,ed4 <_ZN4core3fmt9Formatter3pad17h017f758b28b77478E+0x2e>
     ece:	aa09                	j	fe0 <_ZN4core3fmt9Formatter3pad17h017f758b28b77478E+0x13a>
     ed0:	18d51163          	bne	a0,a3,1052 <_ZN4core3fmt9Formatter3pad17h017f758b28b77478E+0x1ac>
     ed4:	0c0a0c63          	beqz	s4,fac <_ZN4core3fmt9Formatter3pad17h017f758b28b77478E+0x106>
     ed8:	018b3503          	ld	a0,24(s6)
     edc:	4581                	li	a1,0
     ede:	01490733          	add	a4,s2,s4
     ee2:	00150693          	addi	a3,a0,1
     ee6:	5e7d                	li	t3,-1
     ee8:	0df00313          	li	t1,223
     eec:	0f000813          	li	a6,240
     ef0:	001c08b7          	lui	a7,0x1c0
     ef4:	001102b7          	lui	t0,0x110
     ef8:	87ca                	mv	a5,s2
     efa:	854a                	mv	a0,s2
     efc:	00078403          	lb	s0,0(a5) # 110000 <_ZN8user_lib4HEAP17h89aee303dfdd0618E+0xfc000>
     f00:	00178613          	addi	a2,a5,1
     f04:	0ff47493          	andi	s1,s0,255
     f08:	008e5463          	bge	t3,s0,f10 <_ZN4core3fmt9Formatter3pad17h017f758b28b77478E+0x6a>
     f0c:	87b2                	mv	a5,a2
     f0e:	a069                	j	f98 <_ZN4core3fmt9Formatter3pad17h017f758b28b77478E+0xf2>
     f10:	04e60363          	beq	a2,a4,f56 <_ZN4core3fmt9Formatter3pad17h017f758b28b77478E+0xb0>
     f14:	0017c403          	lbu	s0,1(a5)
     f18:	00278613          	addi	a2,a5,2
     f1c:	03f47413          	andi	s0,s0,63
     f20:	87b2                	mv	a5,a2
     f22:	01f4fe93          	andi	t4,s1,31
     f26:	02937f63          	bgeu	t1,s1,f64 <_ZN4core3fmt9Formatter3pad17h017f758b28b77478E+0xbe>
     f2a:	04e60263          	beq	a2,a4,f6e <_ZN4core3fmt9Formatter3pad17h017f758b28b77478E+0xc8>
     f2e:	00064f03          	lbu	t5,0(a2)
     f32:	00160793          	addi	a5,a2,1
     f36:	03ff7613          	andi	a2,t5,63
     f3a:	8f3e                	mv	t5,a5
     f3c:	041a                	slli	s0,s0,0x6
     f3e:	8c51                	or	s0,s0,a2
     f40:	0304ed63          	bltu	s1,a6,f7a <_ZN4core3fmt9Formatter3pad17h017f758b28b77478E+0xd4>
     f44:	04ef0063          	beq	t5,a4,f84 <_ZN4core3fmt9Formatter3pad17h017f758b28b77478E+0xde>
     f48:	000f4603          	lbu	a2,0(t5)
     f4c:	001f0793          	addi	a5,t5,1
     f50:	03f67613          	andi	a2,a2,63
     f54:	a80d                	j	f86 <_ZN4core3fmt9Formatter3pad17h017f758b28b77478E+0xe0>
     f56:	4401                	li	s0,0
     f58:	87b2                	mv	a5,a2
     f5a:	863a                	mv	a2,a4
     f5c:	01f4fe93          	andi	t4,s1,31
     f60:	fc9365e3          	bltu	t1,s1,f2a <_ZN4core3fmt9Formatter3pad17h017f758b28b77478E+0x84>
     f64:	006e9613          	slli	a2,t4,0x6
     f68:	00c464b3          	or	s1,s0,a2
     f6c:	a035                	j	f98 <_ZN4core3fmt9Formatter3pad17h017f758b28b77478E+0xf2>
     f6e:	4601                	li	a2,0
     f70:	8f3a                	mv	t5,a4
     f72:	041a                	slli	s0,s0,0x6
     f74:	8c51                	or	s0,s0,a2
     f76:	fd04f7e3          	bgeu	s1,a6,f44 <_ZN4core3fmt9Formatter3pad17h017f758b28b77478E+0x9e>
     f7a:	00ce9613          	slli	a2,t4,0xc
     f7e:	00c464b3          	or	s1,s0,a2
     f82:	a819                	j	f98 <_ZN4core3fmt9Formatter3pad17h017f758b28b77478E+0xf2>
     f84:	4601                	li	a2,0
     f86:	012e9493          	slli	s1,t4,0x12
     f8a:	0114f4b3          	and	s1,s1,a7
     f8e:	041a                	slli	s0,s0,0x6
     f90:	8cc1                	or	s1,s1,s0
     f92:	8cd1                	or	s1,s1,a2
     f94:	04548363          	beq	s1,t0,fda <_ZN4core3fmt9Formatter3pad17h017f758b28b77478E+0x134>
     f98:	16fd                	addi	a3,a3,-1
     f9a:	ca99                	beqz	a3,fb0 <_ZN4core3fmt9Formatter3pad17h017f758b28b77478E+0x10a>
     f9c:	40a58533          	sub	a0,a1,a0
     fa0:	00f505b3          	add	a1,a0,a5
     fa4:	853e                	mv	a0,a5
     fa6:	f4f71be3          	bne	a4,a5,efc <_ZN4core3fmt9Formatter3pad17h017f758b28b77478E+0x56>
     faa:	a805                	j	fda <_ZN4core3fmt9Formatter3pad17h017f758b28b77478E+0x134>
     fac:	4a01                	li	s4,0
     fae:	a035                	j	fda <_ZN4core3fmt9Formatter3pad17h017f758b28b77478E+0x134>
     fb0:	00110537          	lui	a0,0x110
     fb4:	02a48363          	beq	s1,a0,fda <_ZN4core3fmt9Formatter3pad17h017f758b28b77478E+0x134>
     fb8:	cd89                	beqz	a1,fd2 <_ZN4core3fmt9Formatter3pad17h017f758b28b77478E+0x12c>
     fba:	01458c63          	beq	a1,s4,fd2 <_ZN4core3fmt9Formatter3pad17h017f758b28b77478E+0x12c>
     fbe:	1345f463          	bgeu	a1,s4,10e6 <_ZN4core3fmt9Formatter3pad17h017f758b28b77478E+0x240>
     fc2:	00b90533          	add	a0,s2,a1
     fc6:	00050503          	lb	a0,0(a0) # 110000 <_ZN8user_lib4HEAP17h89aee303dfdd0618E+0xfc000>
     fca:	fc000613          	li	a2,-64
     fce:	10c54c63          	blt	a0,a2,10e6 <_ZN4core3fmt9Formatter3pad17h017f758b28b77478E+0x240>
     fd2:	854a                	mv	a0,s2
     fd4:	c119                	beqz	a0,fda <_ZN4core3fmt9Formatter3pad17h017f758b28b77478E+0x134>
     fd6:	892a                	mv	s2,a0
     fd8:	8a2e                	mv	s4,a1
     fda:	4505                	li	a0,1
     fdc:	06a39b63          	bne	t2,a0,1052 <_ZN4core3fmt9Formatter3pad17h017f758b28b77478E+0x1ac>
     fe0:	4581                	li	a1,0
     fe2:	020a0063          	beqz	s4,1002 <_ZN4core3fmt9Formatter3pad17h017f758b28b77478E+0x15c>
     fe6:	8552                	mv	a0,s4
     fe8:	864a                	mv	a2,s2
     fea:	00064683          	lbu	a3,0(a2)
     fee:	0605                	addi	a2,a2,1
     ff0:	0c06f693          	andi	a3,a3,192
     ff4:	0806c693          	xori	a3,a3,128
     ff8:	0016b693          	seqz	a3,a3
     ffc:	157d                	addi	a0,a0,-1
     ffe:	95b6                	add	a1,a1,a3
    1000:	f56d                	bnez	a0,fea <_ZN4core3fmt9Formatter3pad17h017f758b28b77478E+0x144>
    1002:	008b3503          	ld	a0,8(s6)
    1006:	40ba05b3          	sub	a1,s4,a1
    100a:	04a5f463          	bgeu	a1,a0,1052 <_ZN4core3fmt9Formatter3pad17h017f758b28b77478E+0x1ac>
    100e:	4581                	li	a1,0
    1010:	020a0063          	beqz	s4,1030 <_ZN4core3fmt9Formatter3pad17h017f758b28b77478E+0x18a>
    1014:	8652                	mv	a2,s4
    1016:	86ca                	mv	a3,s2
    1018:	0006c703          	lbu	a4,0(a3)
    101c:	0685                	addi	a3,a3,1
    101e:	0c077713          	andi	a4,a4,192
    1022:	08074713          	xori	a4,a4,128
    1026:	00173713          	seqz	a4,a4
    102a:	167d                	addi	a2,a2,-1
    102c:	95ba                	add	a1,a1,a4
    102e:	f66d                	bnez	a2,1018 <_ZN4core3fmt9Formatter3pad17h017f758b28b77478E+0x172>
    1030:	038b4683          	lbu	a3,56(s6)
    1034:	4601                	li	a2,0
    1036:	470d                	li	a4,3
    1038:	414585b3          	sub	a1,a1,s4
    103c:	00e68363          	beq	a3,a4,1042 <_ZN4core3fmt9Formatter3pad17h017f758b28b77478E+0x19c>
    1040:	8636                	mv	a2,a3
    1042:	4685                	li	a3,1
    1044:	952e                	add	a0,a0,a1
    1046:	02c6ca63          	blt	a3,a2,107a <_ZN4core3fmt9Formatter3pad17h017f758b28b77478E+0x1d4>
    104a:	ea1d                	bnez	a2,1080 <_ZN4core3fmt9Formatter3pad17h017f758b28b77478E+0x1da>
    104c:	8aaa                	mv	s5,a0
    104e:	4501                	li	a0,0
    1050:	a83d                	j	108e <_ZN4core3fmt9Formatter3pad17h017f758b28b77478E+0x1e8>
    1052:	028b3583          	ld	a1,40(s6)
    1056:	020b3503          	ld	a0,32(s6)
    105a:	6d94                	ld	a3,24(a1)
    105c:	85ca                	mv	a1,s2
    105e:	8652                	mv	a2,s4
    1060:	9682                	jalr	a3
    1062:	84aa                	mv	s1,a0
    1064:	8526                	mv	a0,s1
    1066:	6b02                	ld	s6,0(sp)
    1068:	6aa2                	ld	s5,8(sp)
    106a:	6a42                	ld	s4,16(sp)
    106c:	69e2                	ld	s3,24(sp)
    106e:	7902                	ld	s2,32(sp)
    1070:	74a2                	ld	s1,40(sp)
    1072:	7442                	ld	s0,48(sp)
    1074:	70e2                	ld	ra,56(sp)
    1076:	6121                	addi	sp,sp,64
    1078:	8082                	ret
    107a:	458d                	li	a1,3
    107c:	00b61463          	bne	a2,a1,1084 <_ZN4core3fmt9Formatter3pad17h017f758b28b77478E+0x1de>
    1080:	4a81                	li	s5,0
    1082:	a031                	j	108e <_ZN4core3fmt9Formatter3pad17h017f758b28b77478E+0x1e8>
    1084:	00150593          	addi	a1,a0,1
    1088:	8105                	srli	a0,a0,0x1
    108a:	0015da93          	srli	s5,a1,0x1
    108e:	00150413          	addi	s0,a0,1
    1092:	147d                	addi	s0,s0,-1
    1094:	cc01                	beqz	s0,10ac <_ZN4core3fmt9Formatter3pad17h017f758b28b77478E+0x206>
    1096:	028b3583          	ld	a1,40(s6)
    109a:	020b3503          	ld	a0,32(s6)
    109e:	7190                	ld	a2,32(a1)
    10a0:	034b2583          	lw	a1,52(s6)
    10a4:	9602                	jalr	a2
    10a6:	d575                	beqz	a0,1092 <_ZN4core3fmt9Formatter3pad17h017f758b28b77478E+0x1ec>
    10a8:	4485                	li	s1,1
    10aa:	bf6d                	j	1064 <_ZN4core3fmt9Formatter3pad17h017f758b28b77478E+0x1be>
    10ac:	028b3583          	ld	a1,40(s6)
    10b0:	034b6983          	lwu	s3,52(s6)
    10b4:	020b3503          	ld	a0,32(s6)
    10b8:	6d94                	ld	a3,24(a1)
    10ba:	85ca                	mv	a1,s2
    10bc:	8652                	mv	a2,s4
    10be:	9682                	jalr	a3
    10c0:	4485                	li	s1,1
    10c2:	f14d                	bnez	a0,1064 <_ZN4core3fmt9Formatter3pad17h017f758b28b77478E+0x1be>
    10c4:	020b3903          	ld	s2,32(s6)
    10c8:	028b3a03          	ld	s4,40(s6)
    10cc:	001a8413          	addi	s0,s5,1
    10d0:	147d                	addi	s0,s0,-1
    10d2:	c801                	beqz	s0,10e2 <_ZN4core3fmt9Formatter3pad17h017f758b28b77478E+0x23c>
    10d4:	020a3603          	ld	a2,32(s4) # 110020 <_ZN8user_lib4HEAP17h89aee303dfdd0618E+0xfc020>
    10d8:	854a                	mv	a0,s2
    10da:	85ce                	mv	a1,s3
    10dc:	9602                	jalr	a2
    10de:	d96d                	beqz	a0,10d0 <_ZN4core3fmt9Formatter3pad17h017f758b28b77478E+0x22a>
    10e0:	b751                	j	1064 <_ZN4core3fmt9Formatter3pad17h017f758b28b77478E+0x1be>
    10e2:	4481                	li	s1,0
    10e4:	b741                	j	1064 <_ZN4core3fmt9Formatter3pad17h017f758b28b77478E+0x1be>
    10e6:	4501                	li	a0,0
    10e8:	ee0509e3          	beqz	a0,fda <_ZN4core3fmt9Formatter3pad17h017f758b28b77478E+0x134>
    10ec:	b5ed                	j	fd6 <_ZN4core3fmt9Formatter3pad17h017f758b28b77478E+0x130>

00000000000010ee <_ZN42_$LT$str$u20$as$u20$core..fmt..Display$GT$3fmt17hbc3d99ec4c26518bE>:
    10ee:	86ae                	mv	a3,a1
    10f0:	85aa                	mv	a1,a0
    10f2:	8532                	mv	a0,a2
    10f4:	8636                	mv	a2,a3
    10f6:	00000317          	auipc	t1,0x0
    10fa:	db030067          	jr	-592(t1) # ea6 <_ZN4core3fmt9Formatter3pad17h017f758b28b77478E>

00000000000010fe <_ZN4core3fmt3num3imp7fmt_u6417h373d4d6e712c9b1fE>:
    10fe:	715d                	addi	sp,sp,-80
    1100:	e486                	sd	ra,72(sp)
    1102:	e0a2                	sd	s0,64(sp)
    1104:	fc26                	sd	s1,56(sp)
    1106:	f84a                	sd	s2,48(sp)
    1108:	f44e                	sd	s3,40(sp)
    110a:	8832                	mv	a6,a2
    110c:	00455613          	srli	a2,a0,0x4
    1110:	02700713          	li	a4,39
    1114:	27100693          	li	a3,625

0000000000001118 <.LBB479_10>:
    1118:	00001897          	auipc	a7,0x1
    111c:	35088893          	addi	a7,a7,848 # 2468 <.Lanon.47b2c943d931c9d60ded85f366a71b31.223>
    1120:	02d67363          	bgeu	a2,a3,1146 <.LBB479_10+0x2e>
    1124:	06300613          	li	a2,99
    1128:	0ca64e63          	blt	a2,a0,1204 <.LBB479_10+0xec>
    112c:	4629                	li	a2,10
    112e:	12c55963          	bge	a0,a2,1260 <.LBB479_10+0x148>
    1132:	fff70613          	addi	a2,a4,-1
    1136:	00110693          	addi	a3,sp,1
    113a:	96b2                	add	a3,a3,a2
    113c:	03050513          	addi	a0,a0,48
    1140:	00a68023          	sb	a0,0(a3)
    1144:	aa2d                	j	127e <.LBB479_10+0x166>
    1146:	4701                	li	a4,0
    1148:	001a3637          	lui	a2,0x1a3
    114c:	6e36061b          	addiw	a2,a2,1763
    1150:	063a                	slli	a2,a2,0xe
    1152:	ac760613          	addi	a2,a2,-1337 # 1a2ac7 <_ZN8user_lib4HEAP17h89aee303dfdd0618E+0x18eac7>
    1156:	063a                	slli	a2,a2,0xe
    1158:	43360613          	addi	a2,a2,1075
    115c:	0636                	slli	a2,a2,0xd
    115e:	94b60293          	addi	t0,a2,-1717
    1162:	6609                	lui	a2,0x2
    1164:	7106039b          	addiw	t2,a2,1808
    1168:	6641                	lui	a2,0x10
    116a:	ffc60e9b          	addiw	t4,a2,-4
    116e:	0051f6b7          	lui	a3,0x51f
    1172:	b856869b          	addiw	a3,a3,-1147
    1176:	06b6                	slli	a3,a3,0xd
    1178:	3d768693          	addi	a3,a3,983 # 51f3d7 <_ZN8user_lib4HEAP17h89aee303dfdd0618E+0x50b3d7>
    117c:	06ba                	slli	a3,a3,0xe
    117e:	28f68693          	addi	a3,a3,655
    1182:	06b2                	slli	a3,a3,0xc
    1184:	5c368f13          	addi	t5,a3,1475
    1188:	06400313          	li	t1,100
    118c:	ffe60f9b          	addiw	t6,a2,-2
    1190:	00110e13          	addi	t3,sp,1
    1194:	05f5e637          	lui	a2,0x5f5e
    1198:	0ff6091b          	addiw	s2,a2,255
    119c:	87aa                	mv	a5,a0
    119e:	02553533          	mulhu	a0,a0,t0
    11a2:	812d                	srli	a0,a0,0xb
    11a4:	027506b3          	mul	a3,a0,t2
    11a8:	40d786b3          	sub	a3,a5,a3
    11ac:	01d6f433          	and	s0,a3,t4
    11b0:	8009                	srli	s0,s0,0x2
    11b2:	03e43433          	mulhu	s0,s0,t5
    11b6:	8009                	srli	s0,s0,0x2
    11b8:	00141493          	slli	s1,s0,0x1
    11bc:	02640433          	mul	s0,s0,t1
    11c0:	8e81                	sub	a3,a3,s0
    11c2:	0686                	slli	a3,a3,0x1
    11c4:	01f6f6b3          	and	a3,a3,t6
    11c8:	01148433          	add	s0,s1,a7
    11cc:	00ee04b3          	add	s1,t3,a4
    11d0:	00044983          	lbu	s3,0(s0)
    11d4:	00140403          	lb	s0,1(s0)
    11d8:	96c6                	add	a3,a3,a7
    11da:	00168603          	lb	a2,1(a3)
    11de:	0006c683          	lbu	a3,0(a3)
    11e2:	02848223          	sb	s0,36(s1)
    11e6:	033481a3          	sb	s3,35(s1)
    11ea:	02c48323          	sb	a2,38(s1)
    11ee:	02d482a3          	sb	a3,37(s1)
    11f2:	1771                	addi	a4,a4,-4
    11f4:	faf964e3          	bltu	s2,a5,119c <.LBB479_10+0x84>
    11f8:	02770713          	addi	a4,a4,39
    11fc:	06300613          	li	a2,99
    1200:	f2a656e3          	bge	a2,a0,112c <.LBB479_10+0x14>
    1204:	6641                	lui	a2,0x10
    1206:	ffc6069b          	addiw	a3,a2,-4
    120a:	8ee9                	and	a3,a3,a0
    120c:	8289                	srli	a3,a3,0x2
    120e:	0051f7b7          	lui	a5,0x51f
    1212:	b857879b          	addiw	a5,a5,-1147
    1216:	07b6                	slli	a5,a5,0xd
    1218:	3d778793          	addi	a5,a5,983 # 51f3d7 <_ZN8user_lib4HEAP17h89aee303dfdd0618E+0x50b3d7>
    121c:	07ba                	slli	a5,a5,0xe
    121e:	28f78793          	addi	a5,a5,655
    1222:	07b2                	slli	a5,a5,0xc
    1224:	5c378793          	addi	a5,a5,1475
    1228:	02f6b6b3          	mulhu	a3,a3,a5
    122c:	8289                	srli	a3,a3,0x2
    122e:	06400793          	li	a5,100
    1232:	02f687b3          	mul	a5,a3,a5
    1236:	8d1d                	sub	a0,a0,a5
    1238:	0506                	slli	a0,a0,0x1
    123a:	3679                	addiw	a2,a2,-2
    123c:	8d71                	and	a0,a0,a2
    123e:	1779                	addi	a4,a4,-2
    1240:	9546                	add	a0,a0,a7
    1242:	00150603          	lb	a2,1(a0)
    1246:	00054503          	lbu	a0,0(a0)
    124a:	00110793          	addi	a5,sp,1
    124e:	97ba                	add	a5,a5,a4
    1250:	00c780a3          	sb	a2,1(a5)
    1254:	00a78023          	sb	a0,0(a5)
    1258:	8536                	mv	a0,a3
    125a:	4629                	li	a2,10
    125c:	ecc54be3          	blt	a0,a2,1132 <.LBB479_10+0x1a>
    1260:	0506                	slli	a0,a0,0x1
    1262:	ffe70613          	addi	a2,a4,-2
    1266:	9546                	add	a0,a0,a7
    1268:	00150683          	lb	a3,1(a0)
    126c:	00054503          	lbu	a0,0(a0)
    1270:	00110713          	addi	a4,sp,1
    1274:	9732                	add	a4,a4,a2
    1276:	00d700a3          	sb	a3,1(a4)
    127a:	00a70023          	sb	a0,0(a4)
    127e:	00110513          	addi	a0,sp,1
    1282:	00c50733          	add	a4,a0,a2
    1286:	02700513          	li	a0,39
    128a:	40c507b3          	sub	a5,a0,a2

000000000000128e <.LBB479_11>:
    128e:	00001617          	auipc	a2,0x1
    1292:	15a60613          	addi	a2,a2,346 # 23e8 <.Lanon.47b2c943d931c9d60ded85f366a71b31.177>
    1296:	8542                	mv	a0,a6
    1298:	4681                	li	a3,0
    129a:	00000097          	auipc	ra,0x0
    129e:	9a2080e7          	jalr	-1630(ra) # c3c <_ZN4core3fmt9Formatter12pad_integral17hd6c3049cc532f3cdE>
    12a2:	79a2                	ld	s3,40(sp)
    12a4:	7942                	ld	s2,48(sp)
    12a6:	74e2                	ld	s1,56(sp)
    12a8:	6406                	ld	s0,64(sp)
    12aa:	60a6                	ld	ra,72(sp)
    12ac:	6161                	addi	sp,sp,80
    12ae:	8082                	ret

00000000000012b0 <_ZN4core3fmt3num3imp52_$LT$impl$u20$core..fmt..Display$u20$for$u20$u32$GT$3fmt17ha1dc7db1ae6e1ccdE>:
    12b0:	00056503          	lwu	a0,0(a0)
    12b4:	862e                	mv	a2,a1
    12b6:	4585                	li	a1,1
    12b8:	00000317          	auipc	t1,0x0
    12bc:	e4630067          	jr	-442(t1) # 10fe <_ZN4core3fmt3num3imp7fmt_u6417h373d4d6e712c9b1fE>

00000000000012c0 <_ZN4core3fmt3num3imp52_$LT$impl$u20$core..fmt..Display$u20$for$u20$i64$GT$3fmt17hf9c85affe625496eE>:
    12c0:	6110                	ld	a2,0(a0)
    12c2:	43f65513          	srai	a0,a2,0x3f
    12c6:	00a606b3          	add	a3,a2,a0
    12ca:	8d35                	xor	a0,a0,a3
    12cc:	fff64613          	not	a2,a2
    12d0:	927d                	srli	a2,a2,0x3f
    12d2:	86ae                	mv	a3,a1
    12d4:	85b2                	mv	a1,a2
    12d6:	8636                	mv	a2,a3
    12d8:	00000317          	auipc	t1,0x0
    12dc:	e2630067          	jr	-474(t1) # 10fe <_ZN4core3fmt3num3imp7fmt_u6417h373d4d6e712c9b1fE>

00000000000012e0 <_ZN4core3fmt3num3imp52_$LT$impl$u20$core..fmt..Display$u20$for$u20$u64$GT$3fmt17h264432b89ab7cfccE>:
    12e0:	6108                	ld	a0,0(a0)
    12e2:	862e                	mv	a2,a1
    12e4:	4585                	li	a1,1
    12e6:	00000317          	auipc	t1,0x0
    12ea:	e1830067          	jr	-488(t1) # 10fe <_ZN4core3fmt3num3imp7fmt_u6417h373d4d6e712c9b1fE>

00000000000012ee <_ZN53_$LT$core..fmt..Error$u20$as$u20$core..fmt..Debug$GT$3fmt17h521c7eeed0830024E>:
    12ee:	7590                	ld	a2,40(a1)
    12f0:	7188                	ld	a0,32(a1)
    12f2:	6e1c                	ld	a5,24(a2)

00000000000012f4 <.LBB514_1>:
    12f4:	00001597          	auipc	a1,0x1
    12f8:	28458593          	addi	a1,a1,644 # 2578 <.Lanon.47b2c943d931c9d60ded85f366a71b31.533>
    12fc:	4615                	li	a2,5
    12fe:	8782                	jr	a5

0000000000001300 <_ZN42_$LT$$RF$T$u20$as$u20$core..fmt..Debug$GT$3fmt17hc4f9c2310c108c28E>:
    1300:	6510                	ld	a2,8(a0)
    1302:	6108                	ld	a0,0(a0)
    1304:	6e1c                	ld	a5,24(a2)
    1306:	8782                	jr	a5

0000000000001308 <_ZN44_$LT$$RF$T$u20$as$u20$core..fmt..Display$GT$3fmt17hb0118f6aeefbaeabE>:
    1308:	6114                	ld	a3,0(a0)
    130a:	6510                	ld	a2,8(a0)
    130c:	852e                	mv	a0,a1
    130e:	85b6                	mv	a1,a3
    1310:	00000317          	auipc	t1,0x0
    1314:	b9630067          	jr	-1130(t1) # ea6 <_ZN4core3fmt9Formatter3pad17h017f758b28b77478E>
